; Listing generated by Microsoft (R) Optimizing Compiler Version 19.31.31104.0 

include listing.inc

INCLUDELIB MSVCRTD
INCLUDELIB OLDNAMES

msvcjmc	SEGMENT
__F32AA0BD_concurrencysal@h DB 01H
__5A3A63C4_sal@h DB 01H
__6BEC7B3D_vadefs@h DB 01H
__1BC54112_vcruntime@h DB 01H
__FF18040F_xkeycheck@h DB 01H
__3779B844_yvals_core@h DB 01H
__AD973B64_limits@h DB 01H
__62B17962_climits DB 01H
__6569C2CA_corecrt@h DB 01H
__EDB62062_vcruntime_new@h DB 01H
__5858FF13_vcruntime_new_debug@h DB 01H
__49916C16_crtdbg@h DB 01H
__41ABBF80_crtdefs@h DB 01H
__F1399E15_use_ansi@h DB 01H
__501EED2F_yvals@h DB 01H
__741AE07E_corecrt_math@h DB 01H
__91D68F2D_math@h DB 01H
__6C20D4D3_corecrt_malloc@h DB 01H
__C9393812_stddef@h DB 01H
__D493B9BD_corecrt_search@h DB 01H
__1473E23E_corecrt_wstdlib@h DB 01H
__B49664B7_stdlib@h DB 01H
__E65E5B90_cstdlib DB 01H
__0A37AC5C_xtr1common DB 01H
__D986D001_intrin0@inl@h DB 01H
__5886068B_intrin0@h DB 01H
__38806D73_cmath DB 01H
__A2143F22_corecrt_stdio_config@h DB 01H
__829E1958_corecrt_wstdio@h DB 01H
__6DFAE8B8_stdio@h DB 01H
__A913C05D_cstdio DB 01H
__CDDAF8CA_errno@h DB 01H
__4041E9ED_vcruntime_string@h DB 01H
__1FEB9909_corecrt_memcpy_s@h DB 01H
__A751F051_corecrt_memory@h DB 01H
__9200769A_corecrt_wstring@h DB 01H
__32E5F013_string@h DB 01H
__AACCF370_cstring DB 01H
__C6E16F6F_corecrt_wconio@h DB 01H
__5DB64B66_corecrt_wctype@h DB 01H
__CB8D9B53_corecrt_wdirect@h DB 01H
__A9063C41_corecrt_share@h DB 01H
__6D390390_corecrt_wio@h DB 01H
__61BDDCD5_corecrt_wprocess@h DB 01H
__1157D6BA_corecrt_wtime@h DB 01H
__64F617E8_types@h DB 01H
__1DC1E279_stat@h DB 01H
__93DC0B45_wchar@h DB 01H
__3398160E_cwchar DB 01H
__4395813D_cstddef DB 01H
__E9ECD68E_initializer_list DB 01H
__264C4909_xstddef DB 01H
__70589338_iosfwd DB 01H
__13E1155B_stdint@h DB 01H
__5B00BAED_cstdint DB 01H
__B1B1C2C4_type_traits DB 01H
__D153DE1B_utility DB 01H
__7F396DA6_xutility DB 01H
__6E95DAE6_iterator DB 01H
__5B81F060_share@h DB 01H
__4926392B___msvc_system_error_abi@hpp DB 01H
__3432B4A6_cerrno DB 01H
__20BB4341_malloc@h DB 01H
__3C5D8049_corecrt_terminate@h DB 01H
__18EF2578_eh@h DB 01H
__50B6FA41_vcruntime_exception@h DB 01H
__89F4D116_exception DB 01H
__158E8E48_float@h DB 01H
__DA570BDA_cfloat DB 01H
__93CAE39E_isa_availability@h DB 01H
__BCB146BE_limits DB 01H
__F32E7743_new DB 01H
__83F85DC0_xatomic@h DB 01H
__BBC6BDD8_xmemory DB 01H
__CF153B44_xstring DB 01H
__00BAEB4B_stdexcept DB 01H
__74E16614_xcall_once@h DB 01H
__F88BF820_xerrc@h DB 01H
__A0B61CF9_time@h DB 01H
__FE33F17B_ctime DB 01H
__C9FD8EE7_xtimec@h DB 01H
__9077A9A6_xthreads@h DB 01H
__D7841A7C_atomic DB 01H
__CBBC7434_system_error DB 01H
__A784D2C3_vcruntime_typeinfo@h DB 01H
__0FE69EBF_typeinfo DB 01H
__001F4A30_memory DB 01H
__2C5A1D3F_xfacet DB 01H
__61AD4BC5___msvc_xlocinfo_types@hpp DB 01H
__B2D2BA86_ctype@h DB 01H
__A6D827FA_cctype DB 01H
__A3D09DBA_locale@h DB 01H
__75F28741_clocale DB 01H
__106F7D77_xlocinfo DB 01H
__102B4F75_xlocale DB 01H
__298A0A64_xiosbase DB 01H
__021A53F7_streambuf DB 01H
__8EAC2962_xlocnum DB 01H
__0BE34D55_ios DB 01H
__033B95B1_ostream DB 01H
__60EBA08B_istream DB 01H
__1D4017B9_iostream DB 01H
__7198BCB7_Laba1@cpp DB 01H
msvcjmc	ENDS
PUBLIC	?__empty_global_delete@@YAXPEAX@Z		; __empty_global_delete
PUBLIC	?__empty_global_delete@@YAXPEAX_K@Z		; __empty_global_delete
PUBLIC	?length@?$_Narrow_char_traits@DH@std@@SA_KQEBD@Z ; std::_Narrow_char_traits<char,int>::length
PUBLIC	?eq_int_type@?$_Narrow_char_traits@DH@std@@SA_NAEBH0@Z ; std::_Narrow_char_traits<char,int>::eq_int_type
PUBLIC	?eof@?$_Narrow_char_traits@DH@std@@SAHXZ	; std::_Narrow_char_traits<char,int>::eof
PUBLIC	?leap_year@@YA_NH@Z				; leap_year
PUBLIC	?number_of_day@@YAHHHH_N@Z			; number_of_day
PUBLIC	?month_name@@YAXH@Z				; month_name
PUBLIC	?programmers_day@@YAX_NH@Z			; programmers_day
PUBLIC	main
PUBLIC	??$?6U?$char_traits@D@std@@@std@@YAAEAV?$basic_ostream@DU?$char_traits@D@std@@@0@AEAV10@PEBD@Z ; std::operator<<<std::char_traits<char> >
PUBLIC	??$endl@DU?$char_traits@D@std@@@std@@YAAEAV?$basic_ostream@DU?$char_traits@D@std@@@0@AEAV10@@Z ; std::endl<char,std::char_traits<char> >
PUBLIC	??0_Sentry_base@?$basic_ostream@DU?$char_traits@D@std@@@std@@QEAA@AEAV12@@Z ; std::basic_ostream<char,std::char_traits<char> >::_Sentry_base::_Sentry_base
PUBLIC	??1_Sentry_base@?$basic_ostream@DU?$char_traits@D@std@@@std@@QEAA@XZ ; std::basic_ostream<char,std::char_traits<char> >::_Sentry_base::~_Sentry_base
PUBLIC	??0sentry@?$basic_ostream@DU?$char_traits@D@std@@@std@@QEAA@AEAV12@@Z ; std::basic_ostream<char,std::char_traits<char> >::sentry::sentry
PUBLIC	??1sentry@?$basic_ostream@DU?$char_traits@D@std@@@std@@QEAA@XZ ; std::basic_ostream<char,std::char_traits<char> >::sentry::~sentry
PUBLIC	??Bsentry@?$basic_ostream@DU?$char_traits@D@std@@@std@@QEBA_NXZ ; std::basic_ostream<char,std::char_traits<char> >::sentry::operator bool
PUBLIC	__JustMyCode_Default
PUBLIC	??_C@_03EJKFMIHK@rus@				; `string'
PUBLIC	??_C@_0CH@GJBGONHG@?6?B?b?e?d?h?r?e?5?c?n?d?5?b?5?t?n?p?l?$OA?r?e?5?C?C?C?C?$CI?v?h?t@ ; `string'
PUBLIC	??_C@_0CK@GAMEFMOH@?6?O?n?l?m?h?r?e?0?5?m?h?5?n?d?m?n?c?n?5?q?h?l?b?n?k?$OA?5?q?5?j@ ; `string'
PUBLIC	??_C@_0BM@JCNKCMKH@?6?C?n?d?5?d?n?k?f?e?m?5?a?$PL?r?$PM?5?m?$OA?x?e?i?5?$PN?p?$PL?$CB@ ; `string'
PUBLIC	??_C@_0CH@BKOPGICG@?6?B?b?e?d?h?r?e?5?l?e?q?$PP?v?5?b?5?t?n?p?l?$OA?r?e?5?L?L?$CI?v?h?t@ ; `string'
PUBLIC	??_C@_0CM@BKJOKDCE@?6?H?5?o?n?l?m?h?r?e?0?5?m?h?5?n?d?m?n?c?n?5?q?h?l?b?n?k?$OA?5?q@ ; `string'
PUBLIC	??_C@_0BE@CPMNDBJJ@?6?M?e?r?5?r?$OA?j?n?c?n?5?l?e?q?$PP?v?$OA?$CB@ ; `string'
PUBLIC	??_C@_0CG@HANCCLNH@?6?B?b?e?d?h?r?e?5?d?e?m?$PM?5?b?5?t?n?p?l?$OA?r?e?5?D?D?$CI?v?h?t?p@ ; `string'
PUBLIC	??_C@_0CD@CELOEKHK@?6?M?h?5?b?5?n?d?m?n?l?5?l?e?q?$PP?v?e?5?m?e?r?5?r?$OA?j?n?c?n?5?d@ ; `string'
PUBLIC	??_C@_0BP@KKJIAMBJ@?6?B?5?$PN?r?n?l?5?l?e?q?$PP?v?e?5?r?n?k?$PM?j?n?531?5?d?e?m?$PM?$CB@ ; `string'
PUBLIC	??_C@_0CG@DOIHLELH@?6?B?5?b?h?q?n?j?n?q?m?n?l?5?t?e?b?p?$OA?k?e?5?r?n?k?$PM?j?n?529@ ; `string'
PUBLIC	??_C@_0CJ@CPPGOPJI@?6?B?5?m?e?5?b?h?q?n?j?n?q?m?n?l?5?t?e?b?p?$OA?k?e?5?r?n?k?$PM?j?n@ ; `string'
PUBLIC	??_C@_0BP@IJBLAODC@?6?B?5?$PN?r?n?l?5?l?e?q?$PP?v?e?5?r?n?k?$PM?j?n?530?5?d?m?e?i?$CB@ ; `string'
PUBLIC	??_C@_0BP@CPIJMAAJ@?6?O?n?p?$PP?d?j?n?b?$PL?i?5?m?n?l?e?p?5?d?m?$PP?5?b?5?c?n?d?s?3?5@ ; `string'
PUBLIC	??_C@_0BO@EFNFCODC@?6?D?m?e?i?5?d?n?5?l?n?e?c?n?5?d?m?$PP?5?p?n?f?d?e?m?h?$PP?3?5@ ; `string'
PUBLIC	??_C@_0BB@JMLFELDA@?6?C?n?d?5?b?h?q?n?j?n?q?m?$PL?i?4@ ; `string'
PUBLIC	??_C@_0BE@GBBDDEEJ@?6?C?n?d?5?m?e?5?b?h?q?n?j?n?q?m?$PL?i?4@ ; `string'
PUBLIC	??_C@_07HFOKEPEI@?6?$NP?m?b?$OA?p?$PM@		; `string'
PUBLIC	??_C@_08IHGOKKIF@?6?T?e?b?p?$OA?k?$PM@		; `string'
PUBLIC	??_C@_05IGHCMJDH@?6?L?$OA?p?r@			; `string'
PUBLIC	??_C@_07JEDJHKCF@?6?$MA?o?p?e?k?$PM@		; `string'
PUBLIC	??_C@_04GJKINJPI@?6?L?$OA?i@			; `string'
PUBLIC	??_C@_05EJEJFCPG@?6?H?$PO?m?$PM@		; `string'
PUBLIC	??_C@_05ENMECOEE@?6?H?$PO?k?$PM@		; `string'
PUBLIC	??_C@_07PFKHIHMC@?6?$MA?b?c?s?q?r@		; `string'
PUBLIC	??_C@_09FAFMDKEK@?6?Q?e?m?r?$PP?a?p?$PM@	; `string'
PUBLIC	??_C@_08LFBEEJDB@?6?N?j?r?$PP?a?p?$PM@		; `string'
PUBLIC	??_C@_07CDPDIEFH@?6?M?n?$PP?a?p?$PM@		; `string'
PUBLIC	??_C@_08NPKJKFLF@?6?D?e?j?$OA?a?p?$PM@		; `string'
PUBLIC	??_C@_0CB@IDGJGAPL@?5?c?n?d?s?5?o?p?h?u?n?d?h?r?q?$PP?5?m?$OA?512?5?q?e?m?r?$PP?a?p?$PP@ ; `string'
PUBLIC	??_C@_0BG@HDBDFIDF@?6?D?e?m?$PM?5?o?p?n?c?p?$OA?l?l?h?q?r?$OA?5?b?5@ ; `string'
PUBLIC	??_C@_0CB@BIMMCMJE@?5?c?n?d?s?5?o?p?h?u?n?d?h?r?q?$PP?5?m?$OA?513?5?q?e?m?r?$PP?a?p?$PP@ ; `string'
EXTRN	abs:PROC
EXTRN	strlen:PROC
EXTRN	?uncaught_exception@std@@YA_NXZ:PROC		; std::uncaught_exception
EXTRN	__imp_setlocale:PROC
EXTRN	__imp_??7ios_base@std@@QEBA_NXZ:PROC
EXTRN	__imp_?good@ios_base@std@@QEBA_NXZ:PROC
EXTRN	__imp_?flags@ios_base@std@@QEBAHXZ:PROC
EXTRN	__imp_?width@ios_base@std@@QEBA_JXZ:PROC
EXTRN	__imp_?width@ios_base@std@@QEAA_J_J@Z:PROC
EXTRN	__imp_?sputc@?$basic_streambuf@DU?$char_traits@D@std@@@std@@QEAAHD@Z:PROC
EXTRN	__imp_?sputn@?$basic_streambuf@DU?$char_traits@D@std@@@std@@QEAA_JPEBD_J@Z:PROC
EXTRN	__imp_?clear@?$basic_ios@DU?$char_traits@D@std@@@std@@QEAAXH_N@Z:PROC
EXTRN	__imp_?setstate@?$basic_ios@DU?$char_traits@D@std@@@std@@QEAAXH_N@Z:PROC
EXTRN	__imp_?tie@?$basic_ios@DU?$char_traits@D@std@@@std@@QEBAPEAV?$basic_ostream@DU?$char_traits@D@std@@@2@XZ:PROC
EXTRN	__imp_?rdbuf@?$basic_ios@DU?$char_traits@D@std@@@std@@QEBAPEAV?$basic_streambuf@DU?$char_traits@D@std@@@2@XZ:PROC
EXTRN	__imp_?fill@?$basic_ios@DU?$char_traits@D@std@@@std@@QEBADXZ:PROC
EXTRN	__imp_?widen@?$basic_ios@DU?$char_traits@D@std@@@std@@QEBADD@Z:PROC
EXTRN	__imp_?_Osfx@?$basic_ostream@DU?$char_traits@D@std@@@std@@QEAAXXZ:PROC
EXTRN	__imp_??6?$basic_ostream@DU?$char_traits@D@std@@@std@@QEAAAEAV01@P6AAEAV01@AEAV01@@Z@Z:PROC
EXTRN	__imp_??6?$basic_ostream@DU?$char_traits@D@std@@@std@@QEAAAEAV01@H@Z:PROC
EXTRN	__imp_?put@?$basic_ostream@DU?$char_traits@D@std@@@std@@QEAAAEAV12@D@Z:PROC
EXTRN	__imp_?flush@?$basic_ostream@DU?$char_traits@D@std@@@std@@QEAAAEAV12@XZ:PROC
EXTRN	__imp_??5?$basic_istream@DU?$char_traits@D@std@@@std@@QEAAAEAV01@AEAH@Z:PROC
EXTRN	__imp_?ignore@?$basic_istream@DU?$char_traits@D@std@@@std@@QEAAAEAV12@_JH@Z:PROC
EXTRN	_RTC_CheckStackVars:PROC
EXTRN	_RTC_InitBase:PROC
EXTRN	_RTC_Shutdown:PROC
EXTRN	__CheckForDebuggerJustMyCode:PROC
EXTRN	__CxxFrameHandler4:PROC
EXTRN	__GSHandlerCheck:PROC
EXTRN	__GSHandlerCheck_EH4:PROC
EXTRN	__security_check_cookie:PROC
EXTRN	__imp_?cin@std@@3V?$basic_istream@DU?$char_traits@D@std@@@1@A:BYTE
EXTRN	__imp_?cout@std@@3V?$basic_ostream@DU?$char_traits@D@std@@@1@A:BYTE
EXTRN	__security_cookie:QWORD
;	COMDAT pdata
pdata	SEGMENT
$pdata$?__empty_global_delete@@YAXPEAX@Z DD imagerel $LN3
	DD	imagerel $LN3+41
	DD	imagerel $unwind$?__empty_global_delete@@YAXPEAX@Z
pdata	ENDS
;	COMDAT pdata
pdata	SEGMENT
$pdata$?__empty_global_delete@@YAXPEAX_K@Z DD imagerel $LN3
	DD	imagerel $LN3+46
	DD	imagerel $unwind$?__empty_global_delete@@YAXPEAX_K@Z
pdata	ENDS
;	COMDAT pdata
pdata	SEGMENT
$pdata$?length@?$_Narrow_char_traits@DH@std@@SA_KQEBD@Z DD imagerel $LN3
	DD	imagerel $LN3+53
	DD	imagerel $unwind$?length@?$_Narrow_char_traits@DH@std@@SA_KQEBD@Z
pdata	ENDS
;	COMDAT pdata
pdata	SEGMENT
$pdata$?eq_int_type@?$_Narrow_char_traits@DH@std@@SA_NAEBH0@Z DD imagerel $LN5
	DD	imagerel $LN5+95
	DD	imagerel $unwind$?eq_int_type@?$_Narrow_char_traits@DH@std@@SA_NAEBH0@Z
pdata	ENDS
;	COMDAT pdata
pdata	SEGMENT
$pdata$?eof@?$_Narrow_char_traits@DH@std@@SAHXZ DD imagerel $LN3
	DD	imagerel $LN3+42
	DD	imagerel $unwind$?eof@?$_Narrow_char_traits@DH@std@@SAHXZ
pdata	ENDS
;	COMDAT pdata
pdata	SEGMENT
$pdata$?leap_year@@YA_NH@Z DD imagerel $LN11
	DD	imagerel $LN11+332
	DD	imagerel $unwind$?leap_year@@YA_NH@Z
pdata	ENDS
;	COMDAT pdata
pdata	SEGMENT
$pdata$?number_of_day@@YAHHHH_N@Z DD imagerel $LN25
	DD	imagerel $LN25+791
	DD	imagerel $unwind$?number_of_day@@YAHHHH_N@Z
pdata	ENDS
;	COMDAT pdata
pdata	SEGMENT
$pdata$?month_name@@YAXH@Z DD imagerel $LN26
	DD	imagerel $LN26+617
	DD	imagerel $unwind$?month_name@@YAXH@Z
pdata	ENDS
;	COMDAT pdata
pdata	SEGMENT
$pdata$?programmers_day@@YAX_NH@Z DD imagerel $LN5
	DD	imagerel $LN5+187
	DD	imagerel $unwind$?programmers_day@@YAX_NH@Z
pdata	ENDS
;	COMDAT pdata
pdata	SEGMENT
$pdata$main DD	imagerel $LN37
	DD	imagerel $LN37+1781
	DD	imagerel $unwind$main
pdata	ENDS
;	COMDAT pdata
pdata	SEGMENT
$pdata$??$?6U?$char_traits@D@std@@@std@@YAAEAV?$basic_ostream@DU?$char_traits@D@std@@@0@AEAV10@PEBD@Z DD imagerel $LN25
	DD	imagerel $LN25+1036
	DD	imagerel $unwind$??$?6U?$char_traits@D@std@@@std@@YAAEAV?$basic_ostream@DU?$char_traits@D@std@@@0@AEAV10@PEBD@Z
pdata	ENDS
;	COMDAT pdata
pdata	SEGMENT
$pdata$?dtor$0@?0???$?6U?$char_traits@D@std@@@std@@YAAEAV?$basic_ostream@DU?$char_traits@D@std@@@0@AEAV10@PEBD@Z@4HA DD imagerel ?dtor$0@?0???$?6U?$char_traits@D@std@@@std@@YAAEAV?$basic_ostream@DU?$char_traits@D@std@@@0@AEAV10@PEBD@Z@4HA
	DD	imagerel ?dtor$0@?0???$?6U?$char_traits@D@std@@@std@@YAAEAV?$basic_ostream@DU?$char_traits@D@std@@@0@AEAV10@PEBD@Z@4HA+36
	DD	imagerel $unwind$?dtor$0@?0???$?6U?$char_traits@D@std@@@std@@YAAEAV?$basic_ostream@DU?$char_traits@D@std@@@0@AEAV10@PEBD@Z@4HA
pdata	ENDS
;	COMDAT pdata
pdata	SEGMENT
$pdata$?catch$1@?0???$?6U?$char_traits@D@std@@@std@@YAAEAV?$basic_ostream@DU?$char_traits@D@std@@@0@AEAV10@PEBD@Z@4HA DD imagerel ?catch$1@?0???$?6U?$char_traits@D@std@@@std@@YAAEAV?$basic_ostream@DU?$char_traits@D@std@@@0@AEAV10@PEBD@Z@4HA
	DD	imagerel ?catch$1@?0???$?6U?$char_traits@D@std@@@std@@YAAEAV?$basic_ostream@DU?$char_traits@D@std@@@0@AEAV10@PEBD@Z@4HA+80
	DD	imagerel $unwind$?catch$1@?0???$?6U?$char_traits@D@std@@@std@@YAAEAV?$basic_ostream@DU?$char_traits@D@std@@@0@AEAV10@PEBD@Z@4HA
pdata	ENDS
;	COMDAT pdata
pdata	SEGMENT
$pdata$??$endl@DU?$char_traits@D@std@@@std@@YAAEAV?$basic_ostream@DU?$char_traits@D@std@@@0@AEAV10@@Z DD imagerel $LN3
	DD	imagerel $LN3+115
	DD	imagerel $unwind$??$endl@DU?$char_traits@D@std@@@std@@YAAEAV?$basic_ostream@DU?$char_traits@D@std@@@0@AEAV10@@Z
pdata	ENDS
;	COMDAT pdata
pdata	SEGMENT
$pdata$??0_Sentry_base@?$basic_ostream@DU?$char_traits@D@std@@@std@@QEAA@AEAV12@@Z DD imagerel $LN4
	DD	imagerel $LN4+148
	DD	imagerel $unwind$??0_Sentry_base@?$basic_ostream@DU?$char_traits@D@std@@@std@@QEAA@AEAV12@@Z
pdata	ENDS
;	COMDAT pdata
pdata	SEGMENT
$pdata$??1_Sentry_base@?$basic_ostream@DU?$char_traits@D@std@@@std@@QEAA@XZ DD imagerel $LN4
	DD	imagerel $LN4+120
	DD	imagerel $unwind$??1_Sentry_base@?$basic_ostream@DU?$char_traits@D@std@@@std@@QEAA@XZ
pdata	ENDS
;	COMDAT pdata
pdata	SEGMENT
$pdata$??0sentry@?$basic_ostream@DU?$char_traits@D@std@@@std@@QEAA@AEAV12@@Z DD imagerel $LN7
	DD	imagerel $LN7+261
	DD	imagerel $unwind$??0sentry@?$basic_ostream@DU?$char_traits@D@std@@@std@@QEAA@AEAV12@@Z
pdata	ENDS
;	COMDAT pdata
pdata	SEGMENT
$pdata$?dtor$0@?0???0sentry@?$basic_ostream@DU?$char_traits@D@std@@@std@@QEAA@AEAV12@@Z@4HA DD imagerel ?dtor$0@?0???0sentry@?$basic_ostream@DU?$char_traits@D@std@@@std@@QEAA@AEAV12@@Z@4HA
	DD	imagerel ?dtor$0@?0???0sentry@?$basic_ostream@DU?$char_traits@D@std@@@std@@QEAA@AEAV12@@Z@4HA+39
	DD	imagerel $unwind$?dtor$0@?0???0sentry@?$basic_ostream@DU?$char_traits@D@std@@@std@@QEAA@AEAV12@@Z@4HA
pdata	ENDS
;	COMDAT pdata
pdata	SEGMENT
$pdata$??1sentry@?$basic_ostream@DU?$char_traits@D@std@@@std@@QEAA@XZ DD imagerel $LN6
	DD	imagerel $LN6+116
	DD	imagerel $unwind$??1sentry@?$basic_ostream@DU?$char_traits@D@std@@@std@@QEAA@XZ
pdata	ENDS
;	COMDAT pdata
pdata	SEGMENT
$pdata$??Bsentry@?$basic_ostream@DU?$char_traits@D@std@@@std@@QEBA_NXZ DD imagerel $LN3
	DD	imagerel $LN3+52
	DD	imagerel $unwind$??Bsentry@?$basic_ostream@DU?$char_traits@D@std@@@std@@QEBA_NXZ
pdata	ENDS
;	COMDAT rtc$TMZ
rtc$TMZ	SEGMENT
_RTC_Shutdown.rtc$TMZ DQ FLAT:_RTC_Shutdown
rtc$TMZ	ENDS
;	COMDAT rtc$IMZ
rtc$IMZ	SEGMENT
_RTC_InitBase.rtc$IMZ DQ FLAT:_RTC_InitBase
rtc$IMZ	ENDS
;	COMDAT ??_C@_0CB@BIMMCMJE@?5?c?n?d?s?5?o?p?h?u?n?d?h?r?q?$PP?5?m?$OA?513?5?q?e?m?r?$PP?a?p?$PP@
CONST	SEGMENT
??_C@_0CB@BIMMCMJE@?5?c?n?d?s?5?o?p?h?u?n?d?h?r?q?$PP?5?m?$OA?513?5?q?e?m?r?$PP?a?p?$PP@ DB ' '
	DB	0e3H, 0eeH, 0e4H, 0f3H, ' ', 0efH, 0f0H, 0e8H, 0f5H, 0eeH, 0e4H
	DB	0e8H, 0f2H, 0f1H, 0ffH, ' ', 0edH, 0e0H, ' 13 ', 0f1H, 0e5H, 0edH
	DB	0f2H, 0ffH, 0e1H, 0f0H, 0ffH, '.', 00H	; `string'
CONST	ENDS
;	COMDAT ??_C@_0BG@HDBDFIDF@?6?D?e?m?$PM?5?o?p?n?c?p?$OA?l?l?h?q?r?$OA?5?b?5@
CONST	SEGMENT
??_C@_0BG@HDBDFIDF@?6?D?e?m?$PM?5?o?p?n?c?p?$OA?l?l?h?q?r?$OA?5?b?5@ DB 0aH
	DB	0c4H, 0e5H, 0edH, 0fcH, ' ', 0efH, 0f0H, 0eeH, 0e3H, 0f0H, 0e0H
	DB	0ecH, 0ecH, 0e8H, 0f1H, 0f2H, 0e0H, ' ', 0e2H, ' ', 00H ; `string'
CONST	ENDS
;	COMDAT ??_C@_0CB@IDGJGAPL@?5?c?n?d?s?5?o?p?h?u?n?d?h?r?q?$PP?5?m?$OA?512?5?q?e?m?r?$PP?a?p?$PP@
CONST	SEGMENT
??_C@_0CB@IDGJGAPL@?5?c?n?d?s?5?o?p?h?u?n?d?h?r?q?$PP?5?m?$OA?512?5?q?e?m?r?$PP?a?p?$PP@ DB ' '
	DB	0e3H, 0eeH, 0e4H, 0f3H, ' ', 0efH, 0f0H, 0e8H, 0f5H, 0eeH, 0e4H
	DB	0e8H, 0f2H, 0f1H, 0ffH, ' ', 0edH, 0e0H, ' 12 ', 0f1H, 0e5H, 0edH
	DB	0f2H, 0ffH, 0e1H, 0f0H, 0ffH, '.', 00H	; `string'
CONST	ENDS
;	COMDAT ??_C@_08NPKJKFLF@?6?D?e?j?$OA?a?p?$PM@
CONST	SEGMENT
??_C@_08NPKJKFLF@?6?D?e?j?$OA?a?p?$PM@ DB 0aH, 0c4H, 0e5H, 0eaH, 0e0H, 0e1H
	DB	0f0H, 0fcH, 00H				; `string'
CONST	ENDS
;	COMDAT ??_C@_07CDPDIEFH@?6?M?n?$PP?a?p?$PM@
CONST	SEGMENT
??_C@_07CDPDIEFH@?6?M?n?$PP?a?p?$PM@ DB 0aH, 0cdH, 0eeH, 0ffH, 0e1H, 0f0H
	DB	0fcH, 00H					; `string'
CONST	ENDS
;	COMDAT ??_C@_08LFBEEJDB@?6?N?j?r?$PP?a?p?$PM@
CONST	SEGMENT
??_C@_08LFBEEJDB@?6?N?j?r?$PP?a?p?$PM@ DB 0aH, 0ceH, 0eaH, 0f2H, 0ffH, 0e1H
	DB	0f0H, 0fcH, 00H				; `string'
CONST	ENDS
;	COMDAT ??_C@_09FAFMDKEK@?6?Q?e?m?r?$PP?a?p?$PM@
CONST	SEGMENT
??_C@_09FAFMDKEK@?6?Q?e?m?r?$PP?a?p?$PM@ DB 0aH, 0d1H, 0e5H, 0edH, 0f2H, 0ffH
	DB	0e1H, 0f0H, 0fcH, 00H			; `string'
CONST	ENDS
;	COMDAT ??_C@_07PFKHIHMC@?6?$MA?b?c?s?q?r@
CONST	SEGMENT
??_C@_07PFKHIHMC@?6?$MA?b?c?s?q?r@ DB 0aH, 0c0H, 0e2H, 0e3H, 0f3H, 0f1H, 0f2H
	DB	00H						; `string'
CONST	ENDS
;	COMDAT ??_C@_05ENMECOEE@?6?H?$PO?k?$PM@
CONST	SEGMENT
??_C@_05ENMECOEE@?6?H?$PO?k?$PM@ DB 0aH, 0c8H, 0feH, 0ebH, 0fcH, 00H ; `string'
CONST	ENDS
;	COMDAT ??_C@_05EJEJFCPG@?6?H?$PO?m?$PM@
CONST	SEGMENT
??_C@_05EJEJFCPG@?6?H?$PO?m?$PM@ DB 0aH, 0c8H, 0feH, 0edH, 0fcH, 00H ; `string'
CONST	ENDS
;	COMDAT ??_C@_04GJKINJPI@?6?L?$OA?i@
CONST	SEGMENT
??_C@_04GJKINJPI@?6?L?$OA?i@ DB 0aH, 0ccH, 0e0H, 0e9H, 00H ; `string'
CONST	ENDS
;	COMDAT ??_C@_07JEDJHKCF@?6?$MA?o?p?e?k?$PM@
CONST	SEGMENT
??_C@_07JEDJHKCF@?6?$MA?o?p?e?k?$PM@ DB 0aH, 0c0H, 0efH, 0f0H, 0e5H, 0ebH
	DB	0fcH, 00H					; `string'
CONST	ENDS
;	COMDAT ??_C@_05IGHCMJDH@?6?L?$OA?p?r@
CONST	SEGMENT
??_C@_05IGHCMJDH@?6?L?$OA?p?r@ DB 0aH, 0ccH, 0e0H, 0f0H, 0f2H, 00H ; `string'
CONST	ENDS
;	COMDAT ??_C@_08IHGOKKIF@?6?T?e?b?p?$OA?k?$PM@
CONST	SEGMENT
??_C@_08IHGOKKIF@?6?T?e?b?p?$OA?k?$PM@ DB 0aH, 0d4H, 0e5H, 0e2H, 0f0H, 0e0H
	DB	0ebH, 0fcH, 00H				; `string'
CONST	ENDS
;	COMDAT ??_C@_07HFOKEPEI@?6?$NP?m?b?$OA?p?$PM@
CONST	SEGMENT
??_C@_07HFOKEPEI@?6?$NP?m?b?$OA?p?$PM@ DB 0aH, 0dfH, 0edH, 0e2H, 0e0H, 0f0H
	DB	0fcH, 00H					; `string'
CONST	ENDS
;	COMDAT ??_C@_0BE@GBBDDEEJ@?6?C?n?d?5?m?e?5?b?h?q?n?j?n?q?m?$PL?i?4@
CONST	SEGMENT
??_C@_0BE@GBBDDEEJ@?6?C?n?d?5?m?e?5?b?h?q?n?j?n?q?m?$PL?i?4@ DB 0aH, 0c3H
	DB	0eeH, 0e4H, ' ', 0edH, 0e5H, ' ', 0e2H, 0e8H, 0f1H, 0eeH, 0eaH
	DB	0eeH, 0f1H, 0edH, 0fbH, 0e9H, '.', 00H	; `string'
CONST	ENDS
;	COMDAT ??_C@_0BB@JMLFELDA@?6?C?n?d?5?b?h?q?n?j?n?q?m?$PL?i?4@
CONST	SEGMENT
??_C@_0BB@JMLFELDA@?6?C?n?d?5?b?h?q?n?j?n?q?m?$PL?i?4@ DB 0aH, 0c3H, 0eeH
	DB	0e4H, ' ', 0e2H, 0e8H, 0f1H, 0eeH, 0eaH, 0eeH, 0f1H, 0edH, 0fbH
	DB	0e9H, '.', 00H				; `string'
CONST	ENDS
;	COMDAT ??_C@_0BO@EFNFCODC@?6?D?m?e?i?5?d?n?5?l?n?e?c?n?5?d?m?$PP?5?p?n?f?d?e?m?h?$PP?3?5@
CONST	SEGMENT
??_C@_0BO@EFNFCODC@?6?D?m?e?i?5?d?n?5?l?n?e?c?n?5?d?m?$PP?5?p?n?f?d?e?m?h?$PP?3?5@ DB 0aH
	DB	0c4H, 0edH, 0e5H, 0e9H, ' ', 0e4H, 0eeH, ' ', 0ecH, 0eeH, 0e5H
	DB	0e3H, 0eeH, ' ', 0e4H, 0edH, 0ffH, ' ', 0f0H, 0eeH, 0e6H, 0e4H
	DB	0e5H, 0edH, 0e8H, 0ffH, ': ', 00H		; `string'
CONST	ENDS
;	COMDAT ??_C@_0BP@CPIJMAAJ@?6?O?n?p?$PP?d?j?n?b?$PL?i?5?m?n?l?e?p?5?d?m?$PP?5?b?5?c?n?d?s?3?5@
CONST	SEGMENT
??_C@_0BP@CPIJMAAJ@?6?O?n?p?$PP?d?j?n?b?$PL?i?5?m?n?l?e?p?5?d?m?$PP?5?b?5?c?n?d?s?3?5@ DB 0aH
	DB	0cfH, 0eeH, 0f0H, 0ffH, 0e4H, 0eaH, 0eeH, 0e2H, 0fbH, 0e9H, ' '
	DB	0edH, 0eeH, 0ecH, 0e5H, 0f0H, ' ', 0e4H, 0edH, 0ffH, ' ', 0e2H
	DB	' ', 0e3H, 0eeH, 0e4H, 0f3H, ': ', 00H	; `string'
CONST	ENDS
;	COMDAT ??_C@_0BP@IJBLAODC@?6?B?5?$PN?r?n?l?5?l?e?q?$PP?v?e?5?r?n?k?$PM?j?n?530?5?d?m?e?i?$CB@
CONST	SEGMENT
??_C@_0BP@IJBLAODC@?6?B?5?$PN?r?n?l?5?l?e?q?$PP?v?e?5?r?n?k?$PM?j?n?530?5?d?m?e?i?$CB@ DB 0aH
	DB	0c2H, ' ', 0fdH, 0f2H, 0eeH, 0ecH, ' ', 0ecH, 0e5H, 0f1H, 0ffH
	DB	0f6H, 0e5H, ' ', 0f2H, 0eeH, 0ebH, 0fcH, 0eaH, 0eeH, ' 30 ', 0e4H
	DB	0edH, 0e5H, 0e9H, '!', 00H			; `string'
CONST	ENDS
;	COMDAT ??_C@_0CJ@CPPGOPJI@?6?B?5?m?e?5?b?h?q?n?j?n?q?m?n?l?5?t?e?b?p?$OA?k?e?5?r?n?k?$PM?j?n@
CONST	SEGMENT
??_C@_0CJ@CPPGOPJI@?6?B?5?m?e?5?b?h?q?n?j?n?q?m?n?l?5?t?e?b?p?$OA?k?e?5?r?n?k?$PM?j?n@ DB 0aH
	DB	0c2H, ' ', 0edH, 0e5H, ' ', 0e2H, 0e8H, 0f1H, 0eeH, 0eaH, 0eeH
	DB	0f1H, 0edH, 0eeH, 0ecH, ' ', 0f4H, 0e5H, 0e2H, 0f0H, 0e0H, 0ebH
	DB	0e5H, ' ', 0f2H, 0eeH, 0ebH, 0fcH, 0eaH, 0eeH, ' 28 ', 0e4H, 0edH
	DB	0e5H, 0e9H, '!', 00H				; `string'
CONST	ENDS
;	COMDAT ??_C@_0CG@DOIHLELH@?6?B?5?b?h?q?n?j?n?q?m?n?l?5?t?e?b?p?$OA?k?e?5?r?n?k?$PM?j?n?529@
CONST	SEGMENT
??_C@_0CG@DOIHLELH@?6?B?5?b?h?q?n?j?n?q?m?n?l?5?t?e?b?p?$OA?k?e?5?r?n?k?$PM?j?n?529@ DB 0aH
	DB	0c2H, ' ', 0e2H, 0e8H, 0f1H, 0eeH, 0eaH, 0eeH, 0f1H, 0edH, 0eeH
	DB	0ecH, ' ', 0f4H, 0e5H, 0e2H, 0f0H, 0e0H, 0ebH, 0e5H, ' ', 0f2H
	DB	0eeH, 0ebH, 0fcH, 0eaH, 0eeH, ' 29 ', 0e4H, 0edH, 0e5H, 0e9H, '!'
	DB	00H						; `string'
CONST	ENDS
;	COMDAT ??_C@_0BP@KKJIAMBJ@?6?B?5?$PN?r?n?l?5?l?e?q?$PP?v?e?5?r?n?k?$PM?j?n?531?5?d?e?m?$PM?$CB@
CONST	SEGMENT
??_C@_0BP@KKJIAMBJ@?6?B?5?$PN?r?n?l?5?l?e?q?$PP?v?e?5?r?n?k?$PM?j?n?531?5?d?e?m?$PM?$CB@ DB 0aH
	DB	0c2H, ' ', 0fdH, 0f2H, 0eeH, 0ecH, ' ', 0ecH, 0e5H, 0f1H, 0ffH
	DB	0f6H, 0e5H, ' ', 0f2H, 0eeH, 0ebH, 0fcH, 0eaH, 0eeH, ' 31 ', 0e4H
	DB	0e5H, 0edH, 0fcH, '!', 00H			; `string'
CONST	ENDS
;	COMDAT ??_C@_0CD@CELOEKHK@?6?M?h?5?b?5?n?d?m?n?l?5?l?e?q?$PP?v?e?5?m?e?r?5?r?$OA?j?n?c?n?5?d@
CONST	SEGMENT
??_C@_0CD@CELOEKHK@?6?M?h?5?b?5?n?d?m?n?l?5?l?e?q?$PP?v?e?5?m?e?r?5?r?$OA?j?n?c?n?5?d@ DB 0aH
	DB	0cdH, 0e8H, ' ', 0e2H, ' ', 0eeH, 0e4H, 0edH, 0eeH, 0ecH, ' ', 0ecH
	DB	0e5H, 0f1H, 0ffH, 0f6H, 0e5H, ' ', 0edH, 0e5H, 0f2H, ' ', 0f2H
	DB	0e0H, 0eaH, 0eeH, 0e3H, 0eeH, ' ', 0e4H, 0edH, 0ffH, '!', 00H ; `string'
CONST	ENDS
;	COMDAT ??_C@_0CG@HANCCLNH@?6?B?b?e?d?h?r?e?5?d?e?m?$PM?5?b?5?t?n?p?l?$OA?r?e?5?D?D?$CI?v?h?t?p@
CONST	SEGMENT
??_C@_0CG@HANCCLNH@?6?B?b?e?d?h?r?e?5?d?e?m?$PM?5?b?5?t?n?p?l?$OA?r?e?5?D?D?$CI?v?h?t?p@ DB 0aH
	DB	0c2H, 0e2H, 0e5H, 0e4H, 0e8H, 0f2H, 0e5H, ' ', 0e4H, 0e5H, 0edH
	DB	0fcH, ' ', 0e2H, ' ', 0f4H, 0eeH, 0f0H, 0ecH, 0e0H, 0f2H, 0e5H
	DB	' ', 0c4H, 0c4H, '(', 0f6H, 0e8H, 0f4H, 0f0H, 0e0H, 0ecH, 0e8H
	DB	'): ', 00H					; `string'
CONST	ENDS
;	COMDAT ??_C@_0BE@CPMNDBJJ@?6?M?e?r?5?r?$OA?j?n?c?n?5?l?e?q?$PP?v?$OA?$CB@
CONST	SEGMENT
??_C@_0BE@CPMNDBJJ@?6?M?e?r?5?r?$OA?j?n?c?n?5?l?e?q?$PP?v?$OA?$CB@ DB 0aH
	DB	0cdH, 0e5H, 0f2H, ' ', 0f2H, 0e0H, 0eaH, 0eeH, 0e3H, 0eeH, ' ', 0ecH
	DB	0e5H, 0f1H, 0ffH, 0f6H, 0e0H, '!', 00H	; `string'
CONST	ENDS
;	COMDAT ??_C@_0CM@BKJOKDCE@?6?H?5?o?n?l?m?h?r?e?0?5?m?h?5?n?d?m?n?c?n?5?q?h?l?b?n?k?$OA?5?q@
CONST	SEGMENT
??_C@_0CM@BKJOKDCE@?6?H?5?o?n?l?m?h?r?e?0?5?m?h?5?n?d?m?n?c?n?5?q?h?l?b?n?k?$OA?5?q@ DB 0aH
	DB	0c8H, ' ', 0efH, 0eeH, 0ecH, 0edH, 0e8H, 0f2H, 0e5H, ', ', 0edH
	DB	0e8H, ' ', 0eeH, 0e4H, 0edH, 0eeH, 0e3H, 0eeH, ' ', 0f1H, 0e8H
	DB	0ecH, 0e2H, 0eeH, 0ebH, 0e0H, ' ', 0f1H, ' ', 0eaH, 0ebH, 0e0H
	DB	0e2H, 0e8H, 0e0H, 0f2H, 0f3H, 0f0H, 0fbH, '!', 00H ; `string'
CONST	ENDS
;	COMDAT ??_C@_0CH@BKOPGICG@?6?B?b?e?d?h?r?e?5?l?e?q?$PP?v?5?b?5?t?n?p?l?$OA?r?e?5?L?L?$CI?v?h?t@
CONST	SEGMENT
??_C@_0CH@BKOPGICG@?6?B?b?e?d?h?r?e?5?l?e?q?$PP?v?5?b?5?t?n?p?l?$OA?r?e?5?L?L?$CI?v?h?t@ DB 0aH
	DB	0c2H, 0e2H, 0e5H, 0e4H, 0e8H, 0f2H, 0e5H, ' ', 0ecH, 0e5H, 0f1H
	DB	0ffH, 0f6H, ' ', 0e2H, ' ', 0f4H, 0eeH, 0f0H, 0ecH, 0e0H, 0f2H
	DB	0e5H, ' ', 0ccH, 0ccH, '(', 0f6H, 0e8H, 0f4H, 0f0H, 0e0H, 0ecH
	DB	0e8H, '): ', 00H				; `string'
CONST	ENDS
;	COMDAT ??_C@_0BM@JCNKCMKH@?6?C?n?d?5?d?n?k?f?e?m?5?a?$PL?r?$PM?5?m?$OA?x?e?i?5?$PN?p?$PL?$CB@
CONST	SEGMENT
??_C@_0BM@JCNKCMKH@?6?C?n?d?5?d?n?k?f?e?m?5?a?$PL?r?$PM?5?m?$OA?x?e?i?5?$PN?p?$PL?$CB@ DB 0aH
	DB	0c3H, 0eeH, 0e4H, ' ', 0e4H, 0eeH, 0ebH, 0e6H, 0e5H, 0edH, ' ', 0e1H
	DB	0fbH, 0f2H, 0fcH, ' ', 0edH, 0e0H, 0f8H, 0e5H, 0e9H, ' ', 0fdH
	DB	0f0H, 0fbH, '!', 00H				; `string'
CONST	ENDS
;	COMDAT ??_C@_0CK@GAMEFMOH@?6?O?n?l?m?h?r?e?0?5?m?h?5?n?d?m?n?c?n?5?q?h?l?b?n?k?$OA?5?q?5?j@
CONST	SEGMENT
??_C@_0CK@GAMEFMOH@?6?O?n?l?m?h?r?e?0?5?m?h?5?n?d?m?n?c?n?5?q?h?l?b?n?k?$OA?5?q?5?j@ DB 0aH
	DB	0cfH, 0eeH, 0ecH, 0edH, 0e8H, 0f2H, 0e5H, ', ', 0edH, 0e8H, ' '
	DB	0eeH, 0e4H, 0edH, 0eeH, 0e3H, 0eeH, ' ', 0f1H, 0e8H, 0ecH, 0e2H
	DB	0eeH, 0ebH, 0e0H, ' ', 0f1H, ' ', 0eaH, 0ebH, 0e0H, 0e2H, 0e8H
	DB	0e0H, 0f2H, 0f3H, 0f0H, 0fbH, '!', 00H	; `string'
CONST	ENDS
;	COMDAT ??_C@_0CH@GJBGONHG@?6?B?b?e?d?h?r?e?5?c?n?d?5?b?5?t?n?p?l?$OA?r?e?5?C?C?C?C?$CI?v?h?t@
CONST	SEGMENT
??_C@_0CH@GJBGONHG@?6?B?b?e?d?h?r?e?5?c?n?d?5?b?5?t?n?p?l?$OA?r?e?5?C?C?C?C?$CI?v?h?t@ DB 0aH
	DB	0c2H, 0e2H, 0e5H, 0e4H, 0e8H, 0f2H, 0e5H, ' ', 0e3H, 0eeH, 0e4H
	DB	' ', 0e2H, ' ', 0f4H, 0eeH, 0f0H, 0ecH, 0e0H, 0f2H, 0e5H, ' ', 0c3H
	DB	0c3H, 0c3H, 0c3H, '(', 0f6H, 0e8H, 0f4H, 0f0H, 0e0H, 0ecH, 0e8H
	DB	'): ', 00H					; `string'
CONST	ENDS
;	COMDAT ??_C@_03EJKFMIHK@rus@
CONST	SEGMENT
??_C@_03EJKFMIHK@rus@ DB 'rus', 00H			; `string'
CONST	ENDS
;	COMDAT xdata
xdata	SEGMENT
$unwind$??Bsentry@?$basic_ostream@DU?$char_traits@D@std@@@std@@QEBA_NXZ DD 025051301H
	DD	010e2313H
	DD	07007001dH
	DD	05006H
xdata	ENDS
;	COMDAT xdata
xdata	SEGMENT
$ip2state$??1sentry@?$basic_ostream@DU?$char_traits@D@std@@@std@@QEAA@XZ DB 02H
	DB	00H
	DB	00H
xdata	ENDS
;	COMDAT xdata
xdata	SEGMENT
$cppxdata$??1sentry@?$basic_ostream@DU?$char_traits@D@std@@@std@@QEAA@XZ DB 060H
	DD	imagerel $ip2state$??1sentry@?$basic_ostream@DU?$char_traits@D@std@@@std@@QEAA@XZ
xdata	ENDS
;	COMDAT xdata
xdata	SEGMENT
$unwind$??1sentry@?$basic_ostream@DU?$char_traits@D@std@@@std@@QEAA@XZ DD 025051319H
	DD	010e2313H
	DD	070070021H
	DD	05006H
	DD	imagerel __CxxFrameHandler4
	DD	imagerel $cppxdata$??1sentry@?$basic_ostream@DU?$char_traits@D@std@@@std@@QEAA@XZ
xdata	ENDS
;	COMDAT voltbl
voltbl	SEGMENT
_volmd	DB	00H
	DB	05H
voltbl	ENDS
;	COMDAT xdata
xdata	SEGMENT
$unwind$?dtor$0@?0???0sentry@?$basic_ostream@DU?$char_traits@D@std@@@std@@QEAA@AEAV12@@Z@4HA DD 031001H
	DD	0700c4210H
	DD	0500bH
xdata	ENDS
;	COMDAT xdata
xdata	SEGMENT
$ip2state$??0sentry@?$basic_ostream@DU?$char_traits@D@std@@@std@@QEAA@AEAV12@@Z DB 06H
	DB	00H
	DB	00H
	DB	'p'
	DB	02H
	DB	0f1H, 02H
	DB	00H
xdata	ENDS
;	COMDAT xdata
xdata	SEGMENT
$stateUnwindMap$??0sentry@?$basic_ostream@DU?$char_traits@D@std@@@std@@QEAA@AEAV12@@Z DB 02H
	DB	0eH
	DD	imagerel ?dtor$0@?0???0sentry@?$basic_ostream@DU?$char_traits@D@std@@@std@@QEAA@AEAV12@@Z@4HA
xdata	ENDS
;	COMDAT xdata
xdata	SEGMENT
$cppxdata$??0sentry@?$basic_ostream@DU?$char_traits@D@std@@@std@@QEAA@AEAV12@@Z DB 028H
	DD	imagerel $stateUnwindMap$??0sentry@?$basic_ostream@DU?$char_traits@D@std@@@std@@QEAA@AEAV12@@Z
	DD	imagerel $ip2state$??0sentry@?$basic_ostream@DU?$char_traits@D@std@@@std@@QEAA@AEAV12@@Z
xdata	ENDS
;	COMDAT xdata
xdata	SEGMENT
$unwind$??0sentry@?$basic_ostream@DU?$char_traits@D@std@@@std@@QEAA@AEAV12@@Z DD 025051811H
	DD	01132318H
	DD	0700c0021H
	DD	0500bH
	DD	imagerel __CxxFrameHandler4
	DD	imagerel $cppxdata$??0sentry@?$basic_ostream@DU?$char_traits@D@std@@@std@@QEAA@AEAV12@@Z
xdata	ENDS
;	COMDAT xdata
xdata	SEGMENT
$ip2state$??1_Sentry_base@?$basic_ostream@DU?$char_traits@D@std@@@std@@QEAA@XZ DB 02H
	DB	00H
	DB	00H
xdata	ENDS
;	COMDAT xdata
xdata	SEGMENT
$cppxdata$??1_Sentry_base@?$basic_ostream@DU?$char_traits@D@std@@@std@@QEAA@XZ DB 060H
	DD	imagerel $ip2state$??1_Sentry_base@?$basic_ostream@DU?$char_traits@D@std@@@std@@QEAA@XZ
xdata	ENDS
;	COMDAT xdata
xdata	SEGMENT
$unwind$??1_Sentry_base@?$basic_ostream@DU?$char_traits@D@std@@@std@@QEAA@XZ DD 025051319H
	DD	010e2313H
	DD	070070021H
	DD	05006H
	DD	imagerel __CxxFrameHandler4
	DD	imagerel $cppxdata$??1_Sentry_base@?$basic_ostream@DU?$char_traits@D@std@@@std@@QEAA@XZ
xdata	ENDS
;	COMDAT xdata
xdata	SEGMENT
$unwind$??0_Sentry_base@?$basic_ostream@DU?$char_traits@D@std@@@std@@QEAA@AEAV12@@Z DD 025051801H
	DD	01132318H
	DD	0700c0021H
	DD	0500bH
xdata	ENDS
;	COMDAT xdata
xdata	SEGMENT
$unwind$??$endl@DU?$char_traits@D@std@@@std@@YAAEAV?$basic_ostream@DU?$char_traits@D@std@@@0@AEAV10@@Z DD 025051301H
	DD	010e2313H
	DD	07007001dH
	DD	05006H
xdata	ENDS
;	COMDAT voltbl
voltbl	SEGMENT
_volmd	DB	00H
	DB	05H
voltbl	ENDS
;	COMDAT voltbl
voltbl	SEGMENT
_volmd	DB	00H
	DB	05H
voltbl	ENDS
;	COMDAT voltbl
voltbl	SEGMENT
_volmd	DW	03bH
	DW	03f3H
voltbl	ENDS
;	COMDAT xdata
xdata	SEGMENT
$unwind$?catch$1@?0???$?6U?$char_traits@D@std@@@std@@YAAEAV?$basic_ostream@DU?$char_traits@D@std@@@0@AEAV10@PEBD@Z@4HA DD 031001H
	DD	0700c4210H
	DD	0500bH
xdata	ENDS
;	COMDAT xdata
xdata	SEGMENT
$unwind$?dtor$0@?0???$?6U?$char_traits@D@std@@@std@@YAAEAV?$basic_ostream@DU?$char_traits@D@std@@@0@AEAV10@PEBD@Z@4HA DD 031001H
	DD	0700c4210H
	DD	0500bH
xdata	ENDS
;	COMDAT xdata
xdata	SEGMENT
$ip2state$??$?6U?$char_traits@D@std@@@std@@YAAEAV?$basic_ostream@DU?$char_traits@D@std@@@0@AEAV10@PEBD@Z DB 0aH
	DB	00H
	DB	00H
	DB	'A', 04H
	DB	02H
	DB	'<'
	DB	04H
	DB	095H, 09H
	DB	02H
	DB	't'
	DB	00H
xdata	ENDS
;	COMDAT xdata
xdata	SEGMENT
$handlerMap$??$?6U?$char_traits@D@std@@@std@@YAAEAV?$basic_ostream@DU?$char_traits@D@std@@@0@AEAV10@PEBD@Z DB 02H
	DB	01H
	DB	080H
	DD	imagerel ?catch$1@?0???$?6U?$char_traits@D@std@@@std@@YAAEAV?$basic_ostream@DU?$char_traits@D@std@@@0@AEAV10@PEBD@Z@4HA
xdata	ENDS
;	COMDAT xdata
xdata	SEGMENT
$tryMap$??$?6U?$char_traits@D@std@@@std@@YAAEAV?$basic_ostream@DU?$char_traits@D@std@@@0@AEAV10@PEBD@Z DB 02H
	DB	02H
	DB	02H
	DB	04H
	DD	imagerel $handlerMap$??$?6U?$char_traits@D@std@@@std@@YAAEAV?$basic_ostream@DU?$char_traits@D@std@@@0@AEAV10@PEBD@Z
xdata	ENDS
;	COMDAT xdata
xdata	SEGMENT
$stateUnwindMap$??$?6U?$char_traits@D@std@@@std@@YAAEAV?$basic_ostream@DU?$char_traits@D@std@@@0@AEAV10@PEBD@Z DB 06H
	DB	0eH
	DD	imagerel ?dtor$0@?0???$?6U?$char_traits@D@std@@@std@@YAAEAV?$basic_ostream@DU?$char_traits@D@std@@@0@AEAV10@PEBD@Z@4HA
	DB	028H
	DB	030H
xdata	ENDS
;	COMDAT xdata
xdata	SEGMENT
$cppxdata$??$?6U?$char_traits@D@std@@@std@@YAAEAV?$basic_ostream@DU?$char_traits@D@std@@@0@AEAV10@PEBD@Z DB 038H
	DD	imagerel $stateUnwindMap$??$?6U?$char_traits@D@std@@@std@@YAAEAV?$basic_ostream@DU?$char_traits@D@std@@@0@AEAV10@PEBD@Z
	DD	imagerel $tryMap$??$?6U?$char_traits@D@std@@@std@@YAAEAV?$basic_ostream@DU?$char_traits@D@std@@@0@AEAV10@PEBD@Z
	DD	imagerel $ip2state$??$?6U?$char_traits@D@std@@@std@@YAAEAV?$basic_ostream@DU?$char_traits@D@std@@@0@AEAV10@PEBD@Z
xdata	ENDS
;	COMDAT xdata
xdata	SEGMENT
$unwind$??$?6U?$char_traits@D@std@@@std@@YAAEAV?$basic_ostream@DU?$char_traits@D@std@@@0@AEAV10@PEBD@Z DD 025054219H
	DD	01132318H
	DD	0700c0045H
	DD	0500bH
	DD	imagerel __GSHandlerCheck_EH4
	DD	imagerel $cppxdata$??$?6U?$char_traits@D@std@@@std@@YAAEAV?$basic_ostream@DU?$char_traits@D@std@@@0@AEAV10@PEBD@Z
	DD	021bH
xdata	ENDS
;	COMDAT CONST
CONST	SEGMENT
??$?6U?$char_traits@D@std@@@std@@YAAEAV?$basic_ostream@DU?$char_traits@D@std@@@0@AEAV10@PEBD@Z$rtcName$0 DB 05fH ; std::operator<<<std::char_traits<char> >
	DB	04fH
	DB	06bH
	DB	00H
	ORG $+12
??$?6U?$char_traits@D@std@@@std@@YAAEAV?$basic_ostream@DU?$char_traits@D@std@@@0@AEAV10@PEBD@Z$rtcVarDesc DD 088H ; std::operator<<<std::char_traits<char> >
	DD	010H
	DQ	FLAT:??$?6U?$char_traits@D@std@@@std@@YAAEAV?$basic_ostream@DU?$char_traits@D@std@@@0@AEAV10@PEBD@Z$rtcName$0
	ORG $+48
??$?6U?$char_traits@D@std@@@std@@YAAEAV?$basic_ostream@DU?$char_traits@D@std@@@0@AEAV10@PEBD@Z$rtcFrameData DD 01H ; std::operator<<<std::char_traits<char> >
	DD	00H
	DQ	FLAT:??$?6U?$char_traits@D@std@@@std@@YAAEAV?$basic_ostream@DU?$char_traits@D@std@@@0@AEAV10@PEBD@Z$rtcVarDesc
CONST	ENDS
;	COMDAT voltbl
voltbl	SEGMENT
_volmd	DW	02aH
	DW	06dcH
voltbl	ENDS
;	COMDAT xdata
xdata	SEGMENT
$unwind$main DD	025053119H
	DD	010a230fH
	DD	070030039H
	DD	05002H
	DD	imagerel __GSHandlerCheck
	DD	01b8H
xdata	ENDS
;	COMDAT CONST
CONST	SEGMENT
main$rtcName$0 DB 064H
	DB	061H
	DB	079H
	DB	00H
main$rtcName$1 DB 06dH
	DB	06fH
	DB	06eH
	DB	074H
	DB	068H
	DB	00H
	ORG $+2
main$rtcName$2 DB 079H
	DB	065H
	DB	061H
	DB	072H
	DB	00H
	ORG $+15
main$rtcVarDesc DD 064H
	DD	04H
	DQ	FLAT:main$rtcName$2
	DD	044H
	DD	04H
	DQ	FLAT:main$rtcName$1
	DD	024H
	DD	04H
	DQ	FLAT:main$rtcName$0
	ORG $+144
main$rtcFrameData DD 03H
	DD	00H
	DQ	FLAT:main$rtcVarDesc
CONST	ENDS
;	COMDAT xdata
xdata	SEGMENT
$unwind$?programmers_day@@YAX_NH@Z DD 025051601H
	DD	01112316H
	DD	0700a001dH
	DD	05009H
xdata	ENDS
;	COMDAT xdata
xdata	SEGMENT
$unwind$?month_name@@YAXH@Z DD 025051201H
	DD	010d2312H
	DD	07006001dH
	DD	05005H
xdata	ENDS
;	COMDAT xdata
xdata	SEGMENT
$unwind$?number_of_day@@YAHHHH_N@Z DD 025052001H
	DD	011b2320H
	DD	07014001dH
	DD	05013H
xdata	ENDS
;	COMDAT xdata
xdata	SEGMENT
$unwind$?leap_year@@YA_NH@Z DD 025051201H
	DD	010d2312H
	DD	07006001dH
	DD	05005H
xdata	ENDS
;	COMDAT xdata
xdata	SEGMENT
$unwind$?eof@?$_Narrow_char_traits@DH@std@@SAHXZ DD 025050f01H
	DD	010a230fH
	DD	07003001dH
	DD	05002H
xdata	ENDS
;	COMDAT xdata
xdata	SEGMENT
$unwind$?eq_int_type@?$_Narrow_char_traits@DH@std@@SA_NAEBH0@Z DD 025051801H
	DD	01132318H
	DD	0700c001fH
	DD	0500bH
xdata	ENDS
;	COMDAT xdata
xdata	SEGMENT
$unwind$?length@?$_Narrow_char_traits@DH@std@@SA_KQEBD@Z DD 025051301H
	DD	010e2313H
	DD	07007001dH
	DD	05006H
xdata	ENDS
;	COMDAT xdata
xdata	SEGMENT
$unwind$?__empty_global_delete@@YAXPEAX_K@Z DD 025051801H
	DD	01132318H
	DD	0700c001dH
	DD	0500bH
xdata	ENDS
;	COMDAT xdata
xdata	SEGMENT
$unwind$?__empty_global_delete@@YAXPEAX@Z DD 025051301H
	DD	010e2313H
	DD	07007001dH
	DD	05006H
xdata	ENDS
; Function compile flags: /Odt
;	COMDAT __JustMyCode_Default
_TEXT	SEGMENT
__JustMyCode_Default PROC				; COMDAT
  00000	c2 00 00	 ret	 0
__JustMyCode_Default ENDP
_TEXT	ENDS
; Function compile flags: /Odtp /RTCsu /ZI
; File C:\Program Files\Microsoft Visual Studio\2022\Community\VC\Tools\MSVC\14.31.31103\include\ostream
;	COMDAT ??Bsentry@?$basic_ostream@DU?$char_traits@D@std@@@std@@QEBA_NXZ
_TEXT	SEGMENT
this$ = 224
??Bsentry@?$basic_ostream@DU?$char_traits@D@std@@@std@@QEBA_NXZ PROC ; std::basic_ostream<char,std::char_traits<char> >::sentry::operator bool, COMDAT

; 123  :         explicit __CLR_OR_THIS_CALL operator bool() const {

$LN3:
  00000	48 89 4c 24 08	 mov	 QWORD PTR [rsp+8], rcx
  00005	55		 push	 rbp
  00006	57		 push	 rdi
  00007	48 81 ec e8 00
	00 00		 sub	 rsp, 232		; 000000e8H
  0000e	48 8d 6c 24 20	 lea	 rbp, QWORD PTR [rsp+32]
  00013	48 8d 0d 00 00
	00 00		 lea	 rcx, OFFSET FLAT:__033B95B1_ostream
  0001a	e8 00 00 00 00	 call	 __CheckForDebuggerJustMyCode

; 124  :             return _Ok;

  0001f	48 8b 85 e0 00
	00 00		 mov	 rax, QWORD PTR this$[rbp]
  00026	0f b6 40 08	 movzx	 eax, BYTE PTR [rax+8]

; 125  :         }

  0002a	48 8d a5 c8 00
	00 00		 lea	 rsp, QWORD PTR [rbp+200]
  00031	5f		 pop	 rdi
  00032	5d		 pop	 rbp
  00033	c3		 ret	 0
??Bsentry@?$basic_ostream@DU?$char_traits@D@std@@@std@@QEBA_NXZ ENDP ; std::basic_ostream<char,std::char_traits<char> >::sentry::operator bool
_TEXT	ENDS
; Function compile flags: /Odtp /RTCsu /ZI
; File C:\Program Files\Microsoft Visual Studio\2022\Community\VC\Tools\MSVC\14.31.31103\include\ostream
;	COMDAT ??1sentry@?$basic_ostream@DU?$char_traits@D@std@@@std@@QEAA@XZ
_TEXT	SEGMENT
_Zero_uncaught_exceptions$ = 4
tv72 = 212
this$ = 256
??1sentry@?$basic_ostream@DU?$char_traits@D@std@@@std@@QEAA@XZ PROC ; std::basic_ostream<char,std::char_traits<char> >::sentry::~sentry, COMDAT

; 108  :         __CLR_OR_THIS_CALL ~sentry() noexcept {

$LN6:
  00000	48 89 4c 24 08	 mov	 QWORD PTR [rsp+8], rcx
  00005	55		 push	 rbp
  00006	57		 push	 rdi
  00007	48 81 ec 08 01
	00 00		 sub	 rsp, 264		; 00000108H
  0000e	48 8d 6c 24 20	 lea	 rbp, QWORD PTR [rsp+32]
  00013	48 8d 0d 00 00
	00 00		 lea	 rcx, OFFSET FLAT:__033B95B1_ostream
  0001a	e8 00 00 00 00	 call	 __CheckForDebuggerJustMyCode

; 109  : #if !_HAS_EXCEPTIONS
; 110  :             const bool _Zero_uncaught_exceptions = true;
; 111  : #elif _HAS_DEPRECATED_UNCAUGHT_EXCEPTION
; 112  :             const bool _Zero_uncaught_exceptions = !_STD uncaught_exception(); // TRANSITION, ArchivedOS-12000909

  0001f	e8 00 00 00 00	 call	 ?uncaught_exception@std@@YA_NXZ ; std::uncaught_exception
  00024	0f b6 c0	 movzx	 eax, al
  00027	85 c0		 test	 eax, eax
  00029	75 09		 jne	 SHORT $LN4@sentry
  0002b	c6 85 d4 00 00
	00 01		 mov	 BYTE PTR tv72[rbp], 1
  00032	eb 07		 jmp	 SHORT $LN5@sentry
$LN4@sentry:
  00034	c6 85 d4 00 00
	00 00		 mov	 BYTE PTR tv72[rbp], 0
$LN5@sentry:
  0003b	0f b6 85 d4 00
	00 00		 movzx	 eax, BYTE PTR tv72[rbp]
  00042	88 45 04	 mov	 BYTE PTR _Zero_uncaught_exceptions$[rbp], al

; 113  : #else // ^^^ _HAS_DEPRECATED_UNCAUGHT_EXCEPTION / !_HAS_DEPRECATED_UNCAUGHT_EXCEPTION vvv
; 114  :             const bool _Zero_uncaught_exceptions = _STD uncaught_exceptions() == 0;
; 115  : #endif // !_HAS_DEPRECATED_UNCAUGHT_EXCEPTION
; 116  : 
; 117  :             if (_Zero_uncaught_exceptions) {

  00045	0f b6 45 04	 movzx	 eax, BYTE PTR _Zero_uncaught_exceptions$[rbp]
  00049	85 c0		 test	 eax, eax
  0004b	74 10		 je	 SHORT $LN2@sentry

; 118  :                 this->_Myostr._Osfx();

  0004d	48 8b 85 00 01
	00 00		 mov	 rax, QWORD PTR this$[rbp]
  00054	48 8b 08	 mov	 rcx, QWORD PTR [rax]
  00057	ff 15 00 00 00
	00		 call	 QWORD PTR __imp_?_Osfx@?$basic_ostream@DU?$char_traits@D@std@@@std@@QEAAXXZ
$LN2@sentry:

; 119  :             }
; 120  :         }

  0005d	48 8b 8d 00 01
	00 00		 mov	 rcx, QWORD PTR this$[rbp]
  00064	e8 00 00 00 00	 call	 ??1_Sentry_base@?$basic_ostream@DU?$char_traits@D@std@@@std@@QEAA@XZ ; std::basic_ostream<char,std::char_traits<char> >::_Sentry_base::~_Sentry_base
  00069	90		 npad	 1
  0006a	48 8d a5 e8 00
	00 00		 lea	 rsp, QWORD PTR [rbp+232]
  00071	5f		 pop	 rdi
  00072	5d		 pop	 rbp
  00073	c3		 ret	 0
??1sentry@?$basic_ostream@DU?$char_traits@D@std@@@std@@QEAA@XZ ENDP ; std::basic_ostream<char,std::char_traits<char> >::sentry::~sentry
_TEXT	ENDS
; Function compile flags: /Odtp /RTCsu /ZI
; File C:\Program Files\Microsoft Visual Studio\2022\Community\VC\Tools\MSVC\14.31.31103\include\ostream
;	COMDAT ??0sentry@?$basic_ostream@DU?$char_traits@D@std@@@std@@QEAA@AEAV12@@Z
_TEXT	SEGMENT
_Tied$ = 8
this$ = 256
_Ostr$ = 264
??0sentry@?$basic_ostream@DU?$char_traits@D@std@@@std@@QEAA@AEAV12@@Z PROC ; std::basic_ostream<char,std::char_traits<char> >::sentry::sentry, COMDAT

; 91   :         explicit __CLR_OR_THIS_CALL sentry(basic_ostream& _Ostr) : _Sentry_base(_Ostr) {

$LN7:
  00000	48 89 54 24 10	 mov	 QWORD PTR [rsp+16], rdx
  00005	48 89 4c 24 08	 mov	 QWORD PTR [rsp+8], rcx
  0000a	55		 push	 rbp
  0000b	57		 push	 rdi
  0000c	48 81 ec 08 01
	00 00		 sub	 rsp, 264		; 00000108H
  00013	48 8d 6c 24 20	 lea	 rbp, QWORD PTR [rsp+32]
  00018	48 8d 0d 00 00
	00 00		 lea	 rcx, OFFSET FLAT:__033B95B1_ostream
  0001f	e8 00 00 00 00	 call	 __CheckForDebuggerJustMyCode
  00024	48 8b 95 08 01
	00 00		 mov	 rdx, QWORD PTR _Ostr$[rbp]
  0002b	48 8b 8d 00 01
	00 00		 mov	 rcx, QWORD PTR this$[rbp]
  00032	e8 00 00 00 00	 call	 ??0_Sentry_base@?$basic_ostream@DU?$char_traits@D@std@@@std@@QEAA@AEAV12@@Z ; std::basic_ostream<char,std::char_traits<char> >::_Sentry_base::_Sentry_base
  00037	90		 npad	 1

; 92   :             if (!_Ostr.good()) {

  00038	48 8b 85 08 01
	00 00		 mov	 rax, QWORD PTR _Ostr$[rbp]
  0003f	48 8b 00	 mov	 rax, QWORD PTR [rax]
  00042	48 63 40 04	 movsxd	 rax, DWORD PTR [rax+4]
  00046	48 8b 8d 08 01
	00 00		 mov	 rcx, QWORD PTR _Ostr$[rbp]
  0004d	48 03 c8	 add	 rcx, rax
  00050	48 8b c1	 mov	 rax, rcx
  00053	48 8b c8	 mov	 rcx, rax
  00056	ff 15 00 00 00
	00		 call	 QWORD PTR __imp_?good@ios_base@std@@QEBA_NXZ
  0005c	0f b6 c0	 movzx	 eax, al
  0005f	85 c0		 test	 eax, eax
  00061	75 10		 jne	 SHORT $LN2@sentry

; 93   :                 _Ok = false;

  00063	48 8b 85 00 01
	00 00		 mov	 rax, QWORD PTR this$[rbp]
  0006a	c6 40 08 00	 mov	 BYTE PTR [rax+8], 0

; 94   :                 return;

  0006e	e9 81 00 00 00	 jmp	 $LN1@sentry
$LN2@sentry:

; 95   :             }
; 96   : 
; 97   :             const auto _Tied = _Ostr.tie();

  00073	48 8b 85 08 01
	00 00		 mov	 rax, QWORD PTR _Ostr$[rbp]
  0007a	48 8b 00	 mov	 rax, QWORD PTR [rax]
  0007d	48 63 40 04	 movsxd	 rax, DWORD PTR [rax+4]
  00081	48 8b 8d 08 01
	00 00		 mov	 rcx, QWORD PTR _Ostr$[rbp]
  00088	48 03 c8	 add	 rcx, rax
  0008b	48 8b c1	 mov	 rax, rcx
  0008e	48 8b c8	 mov	 rcx, rax
  00091	ff 15 00 00 00
	00		 call	 QWORD PTR __imp_?tie@?$basic_ios@DU?$char_traits@D@std@@@std@@QEBAPEAV?$basic_ostream@DU?$char_traits@D@std@@@2@XZ
  00097	48 89 45 08	 mov	 QWORD PTR _Tied$[rbp], rax

; 98   :             if (!_Tied || _Tied == &_Ostr) {

  0009b	48 83 7d 08 00	 cmp	 QWORD PTR _Tied$[rbp], 0
  000a0	74 0d		 je	 SHORT $LN4@sentry
  000a2	48 8b 85 08 01
	00 00		 mov	 rax, QWORD PTR _Ostr$[rbp]
  000a9	48 39 45 08	 cmp	 QWORD PTR _Tied$[rbp], rax
  000ad	75 0d		 jne	 SHORT $LN3@sentry
$LN4@sentry:

; 99   :                 _Ok = true;

  000af	48 8b 85 00 01
	00 00		 mov	 rax, QWORD PTR this$[rbp]
  000b6	c6 40 08 01	 mov	 BYTE PTR [rax+8], 1

; 100  :                 return;

  000ba	eb 38		 jmp	 SHORT $LN1@sentry
$LN3@sentry:

; 101  :             }
; 102  : 
; 103  :             _Tied->flush();

  000bc	48 8b 4d 08	 mov	 rcx, QWORD PTR _Tied$[rbp]
  000c0	ff 15 00 00 00
	00		 call	 QWORD PTR __imp_?flush@?$basic_ostream@DU?$char_traits@D@std@@@std@@QEAAAEAV12@XZ

; 104  :             _Ok = _Ostr.good(); // store test only after flushing tie

  000c6	48 8b 85 08 01
	00 00		 mov	 rax, QWORD PTR _Ostr$[rbp]
  000cd	48 8b 00	 mov	 rax, QWORD PTR [rax]
  000d0	48 63 40 04	 movsxd	 rax, DWORD PTR [rax+4]
  000d4	48 8b 8d 08 01
	00 00		 mov	 rcx, QWORD PTR _Ostr$[rbp]
  000db	48 03 c8	 add	 rcx, rax
  000de	48 8b c1	 mov	 rax, rcx
  000e1	48 8b c8	 mov	 rcx, rax
  000e4	ff 15 00 00 00
	00		 call	 QWORD PTR __imp_?good@ios_base@std@@QEBA_NXZ
  000ea	48 8b 8d 00 01
	00 00		 mov	 rcx, QWORD PTR this$[rbp]
  000f1	88 41 08	 mov	 BYTE PTR [rcx+8], al
$LN1@sentry:

; 105  :         }

  000f4	48 8b 85 00 01
	00 00		 mov	 rax, QWORD PTR this$[rbp]
  000fb	48 8d a5 e8 00
	00 00		 lea	 rsp, QWORD PTR [rbp+232]
  00102	5f		 pop	 rdi
  00103	5d		 pop	 rbp
  00104	c3		 ret	 0
??0sentry@?$basic_ostream@DU?$char_traits@D@std@@@std@@QEAA@AEAV12@@Z ENDP ; std::basic_ostream<char,std::char_traits<char> >::sentry::sentry
_TEXT	ENDS
; Function compile flags: /Odtp /RTCsu /ZI
;	COMDAT text$x
text$x	SEGMENT
_Tied$ = 8
this$ = 256
_Ostr$ = 264
?dtor$0@?0???0sentry@?$basic_ostream@DU?$char_traits@D@std@@@std@@QEAA@AEAV12@@Z@4HA PROC ; `std::basic_ostream<char,std::char_traits<char> >::sentry::sentry'::`1'::dtor$0
  00000	48 89 4c 24 08	 mov	 QWORD PTR [rsp+8], rcx
  00005	48 89 54 24 10	 mov	 QWORD PTR [rsp+16], rdx
  0000a	55		 push	 rbp
  0000b	57		 push	 rdi
  0000c	48 83 ec 28	 sub	 rsp, 40			; 00000028H
  00010	48 8d 6a 20	 lea	 rbp, QWORD PTR [rdx+32]
  00014	48 8b 8d 00 01
	00 00		 mov	 rcx, QWORD PTR this$[rbp]
  0001b	e8 00 00 00 00	 call	 ??1_Sentry_base@?$basic_ostream@DU?$char_traits@D@std@@@std@@QEAA@XZ ; std::basic_ostream<char,std::char_traits<char> >::_Sentry_base::~_Sentry_base
  00020	48 83 c4 28	 add	 rsp, 40			; 00000028H
  00024	5f		 pop	 rdi
  00025	5d		 pop	 rbp
  00026	c3		 ret	 0
?dtor$0@?0???0sentry@?$basic_ostream@DU?$char_traits@D@std@@@std@@QEAA@AEAV12@@Z@4HA ENDP ; `std::basic_ostream<char,std::char_traits<char> >::sentry::sentry'::`1'::dtor$0
text$x	ENDS
; Function compile flags: /Odtp /RTCsu /ZI
; File C:\Program Files\Microsoft Visual Studio\2022\Community\VC\Tools\MSVC\14.31.31103\include\ostream
;	COMDAT ??1_Sentry_base@?$basic_ostream@DU?$char_traits@D@std@@@std@@QEAA@XZ
_TEXT	SEGMENT
_Rdbuf$ = 8
tv72 = 216
this$ = 256
??1_Sentry_base@?$basic_ostream@DU?$char_traits@D@std@@@std@@QEAA@XZ PROC ; std::basic_ostream<char,std::char_traits<char> >::_Sentry_base::~_Sentry_base, COMDAT

; 77   :         __CLR_OR_THIS_CALL ~_Sentry_base() noexcept { // destroy after unlocking

$LN4:
  00000	48 89 4c 24 08	 mov	 QWORD PTR [rsp+8], rcx
  00005	55		 push	 rbp
  00006	57		 push	 rdi
  00007	48 81 ec 08 01
	00 00		 sub	 rsp, 264		; 00000108H
  0000e	48 8d 6c 24 20	 lea	 rbp, QWORD PTR [rsp+32]
  00013	48 8d 0d 00 00
	00 00		 lea	 rcx, OFFSET FLAT:__033B95B1_ostream
  0001a	e8 00 00 00 00	 call	 __CheckForDebuggerJustMyCode

; 78   :             const auto _Rdbuf = _Myostr.rdbuf();

  0001f	48 8b 85 00 01
	00 00		 mov	 rax, QWORD PTR this$[rbp]
  00026	48 8b 00	 mov	 rax, QWORD PTR [rax]
  00029	48 89 85 d8 00
	00 00		 mov	 QWORD PTR tv72[rbp], rax
  00030	48 8b 85 d8 00
	00 00		 mov	 rax, QWORD PTR tv72[rbp]
  00037	48 8b 00	 mov	 rax, QWORD PTR [rax]
  0003a	48 63 40 04	 movsxd	 rax, DWORD PTR [rax+4]
  0003e	48 8b 8d d8 00
	00 00		 mov	 rcx, QWORD PTR tv72[rbp]
  00045	48 03 c8	 add	 rcx, rax
  00048	48 8b c1	 mov	 rax, rcx
  0004b	48 8b c8	 mov	 rcx, rax
  0004e	ff 15 00 00 00
	00		 call	 QWORD PTR __imp_?rdbuf@?$basic_ios@DU?$char_traits@D@std@@@std@@QEBAPEAV?$basic_streambuf@DU?$char_traits@D@std@@@2@XZ
  00054	48 89 45 08	 mov	 QWORD PTR _Rdbuf$[rbp], rax

; 79   :             if (_Rdbuf) {

  00058	48 83 7d 08 00	 cmp	 QWORD PTR _Rdbuf$[rbp], 0
  0005d	74 0f		 je	 SHORT $LN2@Sentry_bas

; 80   :                 _Rdbuf->_Unlock();

  0005f	48 8b 45 08	 mov	 rax, QWORD PTR _Rdbuf$[rbp]
  00063	48 8b 00	 mov	 rax, QWORD PTR [rax]
  00066	48 8b 4d 08	 mov	 rcx, QWORD PTR _Rdbuf$[rbp]
  0006a	ff 50 10	 call	 QWORD PTR [rax+16]
  0006d	90		 npad	 1
$LN2@Sentry_bas:

; 81   :             }
; 82   :         }

  0006e	48 8d a5 e8 00
	00 00		 lea	 rsp, QWORD PTR [rbp+232]
  00075	5f		 pop	 rdi
  00076	5d		 pop	 rbp
  00077	c3		 ret	 0
??1_Sentry_base@?$basic_ostream@DU?$char_traits@D@std@@@std@@QEAA@XZ ENDP ; std::basic_ostream<char,std::char_traits<char> >::_Sentry_base::~_Sentry_base
_TEXT	ENDS
; Function compile flags: /Odtp /RTCsu /ZI
; File C:\Program Files\Microsoft Visual Studio\2022\Community\VC\Tools\MSVC\14.31.31103\include\ostream
;	COMDAT ??0_Sentry_base@?$basic_ostream@DU?$char_traits@D@std@@@std@@QEAA@AEAV12@@Z
_TEXT	SEGMENT
_Rdbuf$ = 8
tv73 = 216
this$ = 256
_Ostr$ = 264
??0_Sentry_base@?$basic_ostream@DU?$char_traits@D@std@@@std@@QEAA@AEAV12@@Z PROC ; std::basic_ostream<char,std::char_traits<char> >::_Sentry_base::_Sentry_base, COMDAT

; 70   :         __CLR_OR_THIS_CALL _Sentry_base(basic_ostream& _Ostr) : _Myostr(_Ostr) { // lock the stream buffer, if there

$LN4:
  00000	48 89 54 24 10	 mov	 QWORD PTR [rsp+16], rdx
  00005	48 89 4c 24 08	 mov	 QWORD PTR [rsp+8], rcx
  0000a	55		 push	 rbp
  0000b	57		 push	 rdi
  0000c	48 81 ec 08 01
	00 00		 sub	 rsp, 264		; 00000108H
  00013	48 8d 6c 24 20	 lea	 rbp, QWORD PTR [rsp+32]
  00018	48 8d 0d 00 00
	00 00		 lea	 rcx, OFFSET FLAT:__033B95B1_ostream
  0001f	e8 00 00 00 00	 call	 __CheckForDebuggerJustMyCode
  00024	48 8b 85 00 01
	00 00		 mov	 rax, QWORD PTR this$[rbp]
  0002b	48 8b 8d 08 01
	00 00		 mov	 rcx, QWORD PTR _Ostr$[rbp]
  00032	48 89 08	 mov	 QWORD PTR [rax], rcx

; 71   :             const auto _Rdbuf = _Myostr.rdbuf();

  00035	48 8b 85 00 01
	00 00		 mov	 rax, QWORD PTR this$[rbp]
  0003c	48 8b 00	 mov	 rax, QWORD PTR [rax]
  0003f	48 89 85 d8 00
	00 00		 mov	 QWORD PTR tv73[rbp], rax
  00046	48 8b 85 d8 00
	00 00		 mov	 rax, QWORD PTR tv73[rbp]
  0004d	48 8b 00	 mov	 rax, QWORD PTR [rax]
  00050	48 63 40 04	 movsxd	 rax, DWORD PTR [rax+4]
  00054	48 8b 8d d8 00
	00 00		 mov	 rcx, QWORD PTR tv73[rbp]
  0005b	48 03 c8	 add	 rcx, rax
  0005e	48 8b c1	 mov	 rax, rcx
  00061	48 8b c8	 mov	 rcx, rax
  00064	ff 15 00 00 00
	00		 call	 QWORD PTR __imp_?rdbuf@?$basic_ios@DU?$char_traits@D@std@@@std@@QEBAPEAV?$basic_streambuf@DU?$char_traits@D@std@@@2@XZ
  0006a	48 89 45 08	 mov	 QWORD PTR _Rdbuf$[rbp], rax

; 72   :             if (_Rdbuf) {

  0006e	48 83 7d 08 00	 cmp	 QWORD PTR _Rdbuf$[rbp], 0
  00073	74 0e		 je	 SHORT $LN2@Sentry_bas

; 73   :                 _Rdbuf->_Lock();

  00075	48 8b 45 08	 mov	 rax, QWORD PTR _Rdbuf$[rbp]
  00079	48 8b 00	 mov	 rax, QWORD PTR [rax]
  0007c	48 8b 4d 08	 mov	 rcx, QWORD PTR _Rdbuf$[rbp]
  00080	ff 50 08	 call	 QWORD PTR [rax+8]
$LN2@Sentry_bas:

; 74   :             }
; 75   :         }

  00083	48 8b 85 00 01
	00 00		 mov	 rax, QWORD PTR this$[rbp]
  0008a	48 8d a5 e8 00
	00 00		 lea	 rsp, QWORD PTR [rbp+232]
  00091	5f		 pop	 rdi
  00092	5d		 pop	 rbp
  00093	c3		 ret	 0
??0_Sentry_base@?$basic_ostream@DU?$char_traits@D@std@@@std@@QEAA@AEAV12@@Z ENDP ; std::basic_ostream<char,std::char_traits<char> >::_Sentry_base::_Sentry_base
_TEXT	ENDS
; Function compile flags: /Odtp /RTCsu /ZI
; File C:\Program Files\Microsoft Visual Studio\2022\Community\VC\Tools\MSVC\14.31.31103\include\ostream
;	COMDAT ??$endl@DU?$char_traits@D@std@@@std@@YAAEAV?$basic_ostream@DU?$char_traits@D@std@@@0@AEAV10@@Z
_TEXT	SEGMENT
_Ostr$ = 224
??$endl@DU?$char_traits@D@std@@@std@@YAAEAV?$basic_ostream@DU?$char_traits@D@std@@@0@AEAV10@@Z PROC ; std::endl<char,std::char_traits<char> >, COMDAT

; 1001 :     basic_ostream<_Elem, _Traits>& _Ostr) { // insert newline and flush stream

$LN3:
  00000	48 89 4c 24 08	 mov	 QWORD PTR [rsp+8], rcx
  00005	55		 push	 rbp
  00006	57		 push	 rdi
  00007	48 81 ec e8 00
	00 00		 sub	 rsp, 232		; 000000e8H
  0000e	48 8d 6c 24 20	 lea	 rbp, QWORD PTR [rsp+32]
  00013	48 8d 0d 00 00
	00 00		 lea	 rcx, OFFSET FLAT:__033B95B1_ostream
  0001a	e8 00 00 00 00	 call	 __CheckForDebuggerJustMyCode

; 1002 :     _Ostr.put(_Ostr.widen('\n'));

  0001f	48 8b 85 e0 00
	00 00		 mov	 rax, QWORD PTR _Ostr$[rbp]
  00026	48 8b 00	 mov	 rax, QWORD PTR [rax]
  00029	48 63 40 04	 movsxd	 rax, DWORD PTR [rax+4]
  0002d	48 8b 8d e0 00
	00 00		 mov	 rcx, QWORD PTR _Ostr$[rbp]
  00034	48 03 c8	 add	 rcx, rax
  00037	48 8b c1	 mov	 rax, rcx
  0003a	b2 0a		 mov	 dl, 10
  0003c	48 8b c8	 mov	 rcx, rax
  0003f	ff 15 00 00 00
	00		 call	 QWORD PTR __imp_?widen@?$basic_ios@DU?$char_traits@D@std@@@std@@QEBADD@Z
  00045	0f b6 d0	 movzx	 edx, al
  00048	48 8b 8d e0 00
	00 00		 mov	 rcx, QWORD PTR _Ostr$[rbp]
  0004f	ff 15 00 00 00
	00		 call	 QWORD PTR __imp_?put@?$basic_ostream@DU?$char_traits@D@std@@@std@@QEAAAEAV12@D@Z

; 1003 :     _Ostr.flush();

  00055	48 8b 8d e0 00
	00 00		 mov	 rcx, QWORD PTR _Ostr$[rbp]
  0005c	ff 15 00 00 00
	00		 call	 QWORD PTR __imp_?flush@?$basic_ostream@DU?$char_traits@D@std@@@std@@QEAAAEAV12@XZ

; 1004 :     return _Ostr;

  00062	48 8b 85 e0 00
	00 00		 mov	 rax, QWORD PTR _Ostr$[rbp]

; 1005 : }

  00069	48 8d a5 c8 00
	00 00		 lea	 rsp, QWORD PTR [rbp+200]
  00070	5f		 pop	 rdi
  00071	5d		 pop	 rbp
  00072	c3		 ret	 0
??$endl@DU?$char_traits@D@std@@@std@@YAAEAV?$basic_ostream@DU?$char_traits@D@std@@@0@AEAV10@@Z ENDP ; std::endl<char,std::char_traits<char> >
_TEXT	ENDS
; Function compile flags: /Odtp /RTCsu /ZI
; File C:\Program Files\Microsoft Visual Studio\2022\Community\VC\Tools\MSVC\14.31.31103\include\ostream
;	COMDAT ??$?6U?$char_traits@D@std@@@std@@YAAEAV?$basic_ostream@DU?$char_traits@D@std@@@0@AEAV10@PEBD@Z
_TEXT	SEGMENT
_State$ = 4
_Count$ = 40
_Pad$ = 72
_Ok$ = 104
$T4 = 340
$T5 = 372
$T6 = 404
$T7 = 436
$T8 = 472
tv300 = 484
tv295 = 484
tv139 = 484
tv301 = 488
tv298 = 488
tv296 = 488
tv137 = 488
tv302 = 496
tv299 = 496
tv297 = 496
__$ArrayPad$ = 504
_Ostr$ = 544
_Val$ = 552
??$?6U?$char_traits@D@std@@@std@@YAAEAV?$basic_ostream@DU?$char_traits@D@std@@@0@AEAV10@PEBD@Z PROC ; std::operator<<<std::char_traits<char> >, COMDAT

; 757  : basic_ostream<char, _Traits>& operator<<(basic_ostream<char, _Traits>& _Ostr, const char* _Val) {

$LN25:
  00000	48 89 54 24 10	 mov	 QWORD PTR [rsp+16], rdx
  00005	48 89 4c 24 08	 mov	 QWORD PTR [rsp+8], rcx
  0000a	55		 push	 rbp
  0000b	57		 push	 rdi
  0000c	48 81 ec 28 02
	00 00		 sub	 rsp, 552		; 00000228H
  00013	48 8d 6c 24 20	 lea	 rbp, QWORD PTR [rsp+32]
  00018	48 8d 7c 24 20	 lea	 rdi, QWORD PTR [rsp+32]
  0001d	b9 52 00 00 00	 mov	 ecx, 82			; 00000052H
  00022	b8 cc cc cc cc	 mov	 eax, -858993460		; ccccccccH
  00027	f3 ab		 rep stosd
  00029	48 8b 8c 24 48
	02 00 00	 mov	 rcx, QWORD PTR [rsp+584]
  00031	48 8b 05 00 00
	00 00		 mov	 rax, QWORD PTR __security_cookie
  00038	48 33 c5	 xor	 rax, rbp
  0003b	48 89 85 f8 01
	00 00		 mov	 QWORD PTR __$ArrayPad$[rbp], rax
  00042	48 8d 0d 00 00
	00 00		 lea	 rcx, OFFSET FLAT:__033B95B1_ostream
  00049	e8 00 00 00 00	 call	 __CheckForDebuggerJustMyCode

; 758  :     // insert NTBS into char stream
; 759  :     using _Elem = char;
; 760  :     using _Myos = basic_ostream<_Elem, _Traits>;
; 761  : 
; 762  :     ios_base::iostate _State = ios_base::goodbit;

  0004e	c7 45 04 00 00
	00 00		 mov	 DWORD PTR _State$[rbp], 0

; 763  :     streamsize _Count        = static_cast<streamsize>(_Traits::length(_Val));

  00055	48 8b 8d 28 02
	00 00		 mov	 rcx, QWORD PTR _Val$[rbp]
  0005c	e8 00 00 00 00	 call	 ?length@?$_Narrow_char_traits@DH@std@@SA_KQEBD@Z ; std::_Narrow_char_traits<char,int>::length
  00061	48 89 45 28	 mov	 QWORD PTR _Count$[rbp], rax

; 764  :     streamsize _Pad          = _Ostr.width() <= 0 || _Ostr.width() <= _Count ? 0 : _Ostr.width() - _Count;

  00065	48 8b 85 20 02
	00 00		 mov	 rax, QWORD PTR _Ostr$[rbp]
  0006c	48 8b 00	 mov	 rax, QWORD PTR [rax]
  0006f	48 63 40 04	 movsxd	 rax, DWORD PTR [rax+4]
  00073	48 8b 8d 20 02
	00 00		 mov	 rcx, QWORD PTR _Ostr$[rbp]
  0007a	48 03 c8	 add	 rcx, rax
  0007d	48 8b c1	 mov	 rax, rcx
  00080	48 8b c8	 mov	 rcx, rax
  00083	ff 15 00 00 00
	00		 call	 QWORD PTR __imp_?width@ios_base@std@@QEBA_JXZ
  00089	48 85 c0	 test	 rax, rax
  0008c	7e 5b		 jle	 SHORT $LN17@operator
  0008e	48 8b 85 20 02
	00 00		 mov	 rax, QWORD PTR _Ostr$[rbp]
  00095	48 8b 00	 mov	 rax, QWORD PTR [rax]
  00098	48 63 40 04	 movsxd	 rax, DWORD PTR [rax+4]
  0009c	48 8b 8d 20 02
	00 00		 mov	 rcx, QWORD PTR _Ostr$[rbp]
  000a3	48 03 c8	 add	 rcx, rax
  000a6	48 8b c1	 mov	 rax, rcx
  000a9	48 8b c8	 mov	 rcx, rax
  000ac	ff 15 00 00 00
	00		 call	 QWORD PTR __imp_?width@ios_base@std@@QEBA_JXZ
  000b2	48 3b 45 28	 cmp	 rax, QWORD PTR _Count$[rbp]
  000b6	7e 31		 jle	 SHORT $LN17@operator
  000b8	48 8b 85 20 02
	00 00		 mov	 rax, QWORD PTR _Ostr$[rbp]
  000bf	48 8b 00	 mov	 rax, QWORD PTR [rax]
  000c2	48 63 40 04	 movsxd	 rax, DWORD PTR [rax+4]
  000c6	48 8b 8d 20 02
	00 00		 mov	 rcx, QWORD PTR _Ostr$[rbp]
  000cd	48 03 c8	 add	 rcx, rax
  000d0	48 8b c1	 mov	 rax, rcx
  000d3	48 8b c8	 mov	 rcx, rax
  000d6	ff 15 00 00 00
	00		 call	 QWORD PTR __imp_?width@ios_base@std@@QEBA_JXZ
  000dc	48 2b 45 28	 sub	 rax, QWORD PTR _Count$[rbp]
  000e0	48 89 85 e8 01
	00 00		 mov	 QWORD PTR tv137[rbp], rax
  000e7	eb 0b		 jmp	 SHORT $LN18@operator
$LN17@operator:
  000e9	48 c7 85 e8 01
	00 00 00 00 00
	00		 mov	 QWORD PTR tv137[rbp], 0
$LN18@operator:
  000f4	48 8b 85 e8 01
	00 00		 mov	 rax, QWORD PTR tv137[rbp]
  000fb	48 89 45 48	 mov	 QWORD PTR _Pad$[rbp], rax

; 765  :     const typename _Myos::sentry _Ok(_Ostr);

  000ff	48 8b 95 20 02
	00 00		 mov	 rdx, QWORD PTR _Ostr$[rbp]
  00106	48 8d 4d 68	 lea	 rcx, QWORD PTR _Ok$[rbp]
  0010a	e8 00 00 00 00	 call	 ??0sentry@?$basic_ostream@DU?$char_traits@D@std@@@std@@QEAA@AEAV12@@Z ; std::basic_ostream<char,std::char_traits<char> >::sentry::sentry
  0010f	90		 npad	 1

; 766  : 
; 767  :     if (!_Ok) {

  00110	48 8d 4d 68	 lea	 rcx, QWORD PTR _Ok$[rbp]
  00114	e8 00 00 00 00	 call	 ??Bsentry@?$basic_ostream@DU?$char_traits@D@std@@@std@@QEBA_NXZ ; std::basic_ostream<char,std::char_traits<char> >::sentry::operator bool
  00119	0f b6 c0	 movzx	 eax, al
  0011c	85 c0		 test	 eax, eax
  0011e	75 0e		 jne	 SHORT $LN8@operator

; 768  :         _State |= ios_base::badbit;

  00120	8b 45 04	 mov	 eax, DWORD PTR _State$[rbp]
  00123	83 c8 04	 or	 eax, 4
  00126	89 45 04	 mov	 DWORD PTR _State$[rbp], eax

; 769  :     } else { // state okay, insert

  00129	e9 67 02 00 00	 jmp	 $LN9@operator
$LN8@operator:

; 770  :         _TRY_IO_BEGIN
; 771  :         if ((_Ostr.flags() & ios_base::adjustfield) != ios_base::left) {

  0012e	48 8b 85 20 02
	00 00		 mov	 rax, QWORD PTR _Ostr$[rbp]
  00135	48 8b 00	 mov	 rax, QWORD PTR [rax]
  00138	48 63 40 04	 movsxd	 rax, DWORD PTR [rax+4]
  0013c	48 8b 8d 20 02
	00 00		 mov	 rcx, QWORD PTR _Ostr$[rbp]
  00143	48 03 c8	 add	 rcx, rax
  00146	48 8b c1	 mov	 rax, rcx
  00149	48 8b c8	 mov	 rcx, rax
  0014c	ff 15 00 00 00
	00		 call	 QWORD PTR __imp_?flags@ios_base@std@@QEBAHXZ
  00152	89 85 e4 01 00
	00		 mov	 DWORD PTR tv139[rbp], eax
  00158	8b 85 e4 01 00
	00		 mov	 eax, DWORD PTR tv139[rbp]
  0015e	25 c0 01 00 00	 and	 eax, 448		; 000001c0H
  00163	83 f8 40	 cmp	 eax, 64			; 00000040H
  00166	0f 84 c8 00 00
	00		 je	 $LN11@operator

; 772  :             for (; 0 < _Pad; --_Pad) { // pad on left

  0016c	eb 0b		 jmp	 SHORT $LN4@operator
$LN2@operator:
  0016e	48 8b 45 48	 mov	 rax, QWORD PTR _Pad$[rbp]
  00172	48 ff c8	 dec	 rax
  00175	48 89 45 48	 mov	 QWORD PTR _Pad$[rbp], rax
$LN4@operator:
  00179	48 83 7d 48 00	 cmp	 QWORD PTR _Pad$[rbp], 0
  0017e	0f 8e b0 00 00
	00		 jle	 $LN11@operator

; 773  :                 if (_Traits::eq_int_type(_Traits::eof(), _Ostr.rdbuf()->sputc(_Ostr.fill()))) {

  00184	48 8b 85 20 02
	00 00		 mov	 rax, QWORD PTR _Ostr$[rbp]
  0018b	48 8b 00	 mov	 rax, QWORD PTR [rax]
  0018e	48 63 40 04	 movsxd	 rax, DWORD PTR [rax+4]
  00192	48 8b 8d 20 02
	00 00		 mov	 rcx, QWORD PTR _Ostr$[rbp]
  00199	48 03 c8	 add	 rcx, rax
  0019c	48 8b c1	 mov	 rax, rcx
  0019f	48 8b c8	 mov	 rcx, rax
  001a2	ff 15 00 00 00
	00		 call	 QWORD PTR __imp_?fill@?$basic_ios@DU?$char_traits@D@std@@@std@@QEBADXZ
  001a8	88 85 e4 01 00
	00		 mov	 BYTE PTR tv295[rbp], al
  001ae	48 8b 85 20 02
	00 00		 mov	 rax, QWORD PTR _Ostr$[rbp]
  001b5	48 8b 00	 mov	 rax, QWORD PTR [rax]
  001b8	48 63 40 04	 movsxd	 rax, DWORD PTR [rax+4]
  001bc	48 8b 8d 20 02
	00 00		 mov	 rcx, QWORD PTR _Ostr$[rbp]
  001c3	48 03 c8	 add	 rcx, rax
  001c6	48 8b c1	 mov	 rax, rcx
  001c9	48 8b c8	 mov	 rcx, rax
  001cc	ff 15 00 00 00
	00		 call	 QWORD PTR __imp_?rdbuf@?$basic_ios@DU?$char_traits@D@std@@@std@@QEBAPEAV?$basic_streambuf@DU?$char_traits@D@std@@@2@XZ
  001d2	48 89 85 e8 01
	00 00		 mov	 QWORD PTR tv296[rbp], rax
  001d9	0f b6 95 e4 01
	00 00		 movzx	 edx, BYTE PTR tv295[rbp]
  001e0	48 8b 8d e8 01
	00 00		 mov	 rcx, QWORD PTR tv296[rbp]
  001e7	ff 15 00 00 00
	00		 call	 QWORD PTR __imp_?sputc@?$basic_streambuf@DU?$char_traits@D@std@@@std@@QEAAHD@Z
  001ed	89 85 f0 01 00
	00		 mov	 DWORD PTR tv297[rbp], eax
  001f3	8b 85 f0 01 00
	00		 mov	 eax, DWORD PTR tv297[rbp]
  001f9	89 85 54 01 00
	00		 mov	 DWORD PTR $T4[rbp], eax
  001ff	e8 00 00 00 00	 call	 ?eof@?$_Narrow_char_traits@DH@std@@SAHXZ ; std::_Narrow_char_traits<char,int>::eof
  00204	89 85 74 01 00
	00		 mov	 DWORD PTR $T5[rbp], eax
  0020a	48 8d 95 54 01
	00 00		 lea	 rdx, QWORD PTR $T4[rbp]
  00211	48 8d 8d 74 01
	00 00		 lea	 rcx, QWORD PTR $T5[rbp]
  00218	e8 00 00 00 00	 call	 ?eq_int_type@?$_Narrow_char_traits@DH@std@@SA_NAEBH0@Z ; std::_Narrow_char_traits<char,int>::eq_int_type
  0021d	0f b6 c0	 movzx	 eax, al
  00220	85 c0		 test	 eax, eax
  00222	74 0b		 je	 SHORT $LN12@operator

; 774  :                     _State |= ios_base::badbit; // insertion failed, quit

  00224	8b 45 04	 mov	 eax, DWORD PTR _State$[rbp]
  00227	83 c8 04	 or	 eax, 4
  0022a	89 45 04	 mov	 DWORD PTR _State$[rbp], eax

; 775  :                     break;

  0022d	eb 05		 jmp	 SHORT $LN11@operator
$LN12@operator:

; 776  :                 }
; 777  :             }

  0022f	e9 3a ff ff ff	 jmp	 $LN2@operator
$LN11@operator:

; 778  :         }
; 779  : 
; 780  :         if (_State == ios_base::goodbit && _Ostr.rdbuf()->sputn(_Val, _Count) != _Count) {

  00234	83 7d 04 00	 cmp	 DWORD PTR _State$[rbp], 0
  00238	75 60		 jne	 SHORT $LN13@operator
  0023a	48 8b 85 20 02
	00 00		 mov	 rax, QWORD PTR _Ostr$[rbp]
  00241	48 8b 00	 mov	 rax, QWORD PTR [rax]
  00244	48 63 40 04	 movsxd	 rax, DWORD PTR [rax+4]
  00248	48 8b 8d 20 02
	00 00		 mov	 rcx, QWORD PTR _Ostr$[rbp]
  0024f	48 03 c8	 add	 rcx, rax
  00252	48 8b c1	 mov	 rax, rcx
  00255	48 8b c8	 mov	 rcx, rax
  00258	ff 15 00 00 00
	00		 call	 QWORD PTR __imp_?rdbuf@?$basic_ios@DU?$char_traits@D@std@@@std@@QEBAPEAV?$basic_streambuf@DU?$char_traits@D@std@@@2@XZ
  0025e	48 89 85 e8 01
	00 00		 mov	 QWORD PTR tv298[rbp], rax
  00265	4c 8b 45 28	 mov	 r8, QWORD PTR _Count$[rbp]
  00269	48 8b 95 28 02
	00 00		 mov	 rdx, QWORD PTR _Val$[rbp]
  00270	48 8b 8d e8 01
	00 00		 mov	 rcx, QWORD PTR tv298[rbp]
  00277	ff 15 00 00 00
	00		 call	 QWORD PTR __imp_?sputn@?$basic_streambuf@DU?$char_traits@D@std@@@std@@QEAA_JPEBD_J@Z
  0027d	48 89 85 f0 01
	00 00		 mov	 QWORD PTR tv299[rbp], rax
  00284	48 8b 45 28	 mov	 rax, QWORD PTR _Count$[rbp]
  00288	48 39 85 f0 01
	00 00		 cmp	 QWORD PTR tv299[rbp], rax
  0028f	74 09		 je	 SHORT $LN13@operator

; 781  :             _State |= ios_base::badbit;

  00291	8b 45 04	 mov	 eax, DWORD PTR _State$[rbp]
  00294	83 c8 04	 or	 eax, 4
  00297	89 45 04	 mov	 DWORD PTR _State$[rbp], eax
$LN13@operator:

; 782  :         }
; 783  : 
; 784  :         if (_State == ios_base::goodbit) {

  0029a	83 7d 04 00	 cmp	 DWORD PTR _State$[rbp], 0
  0029e	0f 85 c8 00 00
	00		 jne	 $LN14@operator

; 785  :             for (; 0 < _Pad; --_Pad) { // pad on right

  002a4	eb 0b		 jmp	 SHORT $LN7@operator
$LN5@operator:
  002a6	48 8b 45 48	 mov	 rax, QWORD PTR _Pad$[rbp]
  002aa	48 ff c8	 dec	 rax
  002ad	48 89 45 48	 mov	 QWORD PTR _Pad$[rbp], rax
$LN7@operator:
  002b1	48 83 7d 48 00	 cmp	 QWORD PTR _Pad$[rbp], 0
  002b6	0f 8e b0 00 00
	00		 jle	 $LN14@operator

; 786  :                 if (_Traits::eq_int_type(_Traits::eof(), _Ostr.rdbuf()->sputc(_Ostr.fill()))) {

  002bc	48 8b 85 20 02
	00 00		 mov	 rax, QWORD PTR _Ostr$[rbp]
  002c3	48 8b 00	 mov	 rax, QWORD PTR [rax]
  002c6	48 63 40 04	 movsxd	 rax, DWORD PTR [rax+4]
  002ca	48 8b 8d 20 02
	00 00		 mov	 rcx, QWORD PTR _Ostr$[rbp]
  002d1	48 03 c8	 add	 rcx, rax
  002d4	48 8b c1	 mov	 rax, rcx
  002d7	48 8b c8	 mov	 rcx, rax
  002da	ff 15 00 00 00
	00		 call	 QWORD PTR __imp_?fill@?$basic_ios@DU?$char_traits@D@std@@@std@@QEBADXZ
  002e0	88 85 e4 01 00
	00		 mov	 BYTE PTR tv300[rbp], al
  002e6	48 8b 85 20 02
	00 00		 mov	 rax, QWORD PTR _Ostr$[rbp]
  002ed	48 8b 00	 mov	 rax, QWORD PTR [rax]
  002f0	48 63 40 04	 movsxd	 rax, DWORD PTR [rax+4]
  002f4	48 8b 8d 20 02
	00 00		 mov	 rcx, QWORD PTR _Ostr$[rbp]
  002fb	48 03 c8	 add	 rcx, rax
  002fe	48 8b c1	 mov	 rax, rcx
  00301	48 8b c8	 mov	 rcx, rax
  00304	ff 15 00 00 00
	00		 call	 QWORD PTR __imp_?rdbuf@?$basic_ios@DU?$char_traits@D@std@@@std@@QEBAPEAV?$basic_streambuf@DU?$char_traits@D@std@@@2@XZ
  0030a	48 89 85 e8 01
	00 00		 mov	 QWORD PTR tv301[rbp], rax
  00311	0f b6 95 e4 01
	00 00		 movzx	 edx, BYTE PTR tv300[rbp]
  00318	48 8b 8d e8 01
	00 00		 mov	 rcx, QWORD PTR tv301[rbp]
  0031f	ff 15 00 00 00
	00		 call	 QWORD PTR __imp_?sputc@?$basic_streambuf@DU?$char_traits@D@std@@@std@@QEAAHD@Z
  00325	89 85 f0 01 00
	00		 mov	 DWORD PTR tv302[rbp], eax
  0032b	8b 85 f0 01 00
	00		 mov	 eax, DWORD PTR tv302[rbp]
  00331	89 85 94 01 00
	00		 mov	 DWORD PTR $T6[rbp], eax
  00337	e8 00 00 00 00	 call	 ?eof@?$_Narrow_char_traits@DH@std@@SAHXZ ; std::_Narrow_char_traits<char,int>::eof
  0033c	89 85 b4 01 00
	00		 mov	 DWORD PTR $T7[rbp], eax
  00342	48 8d 95 94 01
	00 00		 lea	 rdx, QWORD PTR $T6[rbp]
  00349	48 8d 8d b4 01
	00 00		 lea	 rcx, QWORD PTR $T7[rbp]
  00350	e8 00 00 00 00	 call	 ?eq_int_type@?$_Narrow_char_traits@DH@std@@SA_NAEBH0@Z ; std::_Narrow_char_traits<char,int>::eq_int_type
  00355	0f b6 c0	 movzx	 eax, al
  00358	85 c0		 test	 eax, eax
  0035a	74 0b		 je	 SHORT $LN15@operator

; 787  :                     _State |= ios_base::badbit; // insertion failed, quit

  0035c	8b 45 04	 mov	 eax, DWORD PTR _State$[rbp]
  0035f	83 c8 04	 or	 eax, 4
  00362	89 45 04	 mov	 DWORD PTR _State$[rbp], eax

; 788  :                     break;

  00365	eb 05		 jmp	 SHORT $LN14@operator
$LN15@operator:

; 789  :                 }
; 790  :             }

  00367	e9 3a ff ff ff	 jmp	 $LN5@operator
$LN14@operator:

; 791  :         }
; 792  : 
; 793  :         _Ostr.width(0);

  0036c	48 8b 85 20 02
	00 00		 mov	 rax, QWORD PTR _Ostr$[rbp]
  00373	48 8b 00	 mov	 rax, QWORD PTR [rax]
  00376	48 63 40 04	 movsxd	 rax, DWORD PTR [rax+4]
  0037a	48 8b 8d 20 02
	00 00		 mov	 rcx, QWORD PTR _Ostr$[rbp]
  00381	48 03 c8	 add	 rcx, rax
  00384	48 8b c1	 mov	 rax, rcx
  00387	33 d2		 xor	 edx, edx
  00389	48 8b c8	 mov	 rcx, rax
  0038c	ff 15 00 00 00
	00		 call	 QWORD PTR __imp_?width@ios_base@std@@QEAA_J_J@Z
  00392	90		 npad	 1
  00393	eb 00		 jmp	 SHORT $LN9@operator
$LN23@operator:
$LN9@operator:

; 794  :         _CATCH_IO_(ios_base, _Ostr)
; 795  :     }
; 796  : 
; 797  :     _Ostr.setstate(_State);

  00395	48 8b 85 20 02
	00 00		 mov	 rax, QWORD PTR _Ostr$[rbp]
  0039c	48 8b 00	 mov	 rax, QWORD PTR [rax]
  0039f	48 63 40 04	 movsxd	 rax, DWORD PTR [rax+4]
  003a3	48 8b 8d 20 02
	00 00		 mov	 rcx, QWORD PTR _Ostr$[rbp]
  003aa	48 03 c8	 add	 rcx, rax
  003ad	48 8b c1	 mov	 rax, rcx
  003b0	45 33 c0	 xor	 r8d, r8d
  003b3	8b 55 04	 mov	 edx, DWORD PTR _State$[rbp]
  003b6	48 8b c8	 mov	 rcx, rax
  003b9	ff 15 00 00 00
	00		 call	 QWORD PTR __imp_?setstate@?$basic_ios@DU?$char_traits@D@std@@@std@@QEAAXH_N@Z

; 798  :     return _Ostr;

  003bf	48 8b 85 20 02
	00 00		 mov	 rax, QWORD PTR _Ostr$[rbp]
  003c6	48 89 85 d8 01
	00 00		 mov	 QWORD PTR $T8[rbp], rax
  003cd	48 8d 4d 68	 lea	 rcx, QWORD PTR _Ok$[rbp]
  003d1	e8 00 00 00 00	 call	 ??1sentry@?$basic_ostream@DU?$char_traits@D@std@@@std@@QEAA@XZ ; std::basic_ostream<char,std::char_traits<char> >::sentry::~sentry
  003d6	48 8b 85 d8 01
	00 00		 mov	 rax, QWORD PTR $T8[rbp]

; 799  : }

  003dd	48 8b f8	 mov	 rdi, rax
  003e0	48 8d 4d e0	 lea	 rcx, QWORD PTR [rbp-32]
  003e4	48 8d 15 00 00
	00 00		 lea	 rdx, OFFSET FLAT:??$?6U?$char_traits@D@std@@@std@@YAAEAV?$basic_ostream@DU?$char_traits@D@std@@@0@AEAV10@PEBD@Z$rtcFrameData
  003eb	e8 00 00 00 00	 call	 _RTC_CheckStackVars
  003f0	48 8b c7	 mov	 rax, rdi
  003f3	48 8b 8d f8 01
	00 00		 mov	 rcx, QWORD PTR __$ArrayPad$[rbp]
  003fa	48 33 cd	 xor	 rcx, rbp
  003fd	e8 00 00 00 00	 call	 __security_check_cookie
  00402	48 8d a5 08 02
	00 00		 lea	 rsp, QWORD PTR [rbp+520]
  00409	5f		 pop	 rdi
  0040a	5d		 pop	 rbp
  0040b	c3		 ret	 0
??$?6U?$char_traits@D@std@@@std@@YAAEAV?$basic_ostream@DU?$char_traits@D@std@@@0@AEAV10@PEBD@Z ENDP ; std::operator<<<std::char_traits<char> >
_TEXT	ENDS
; Function compile flags: /Odtp /RTCsu /ZI
;	COMDAT text$x
text$x	SEGMENT
_State$ = 4
_Count$ = 40
_Pad$ = 72
_Ok$ = 104
$T4 = 340
$T5 = 372
$T6 = 404
$T7 = 436
$T8 = 472
tv300 = 484
tv295 = 484
tv139 = 484
tv301 = 488
tv298 = 488
tv296 = 488
tv137 = 488
tv302 = 496
tv299 = 496
tv297 = 496
__$ArrayPad$ = 504
_Ostr$ = 544
_Val$ = 552
?dtor$0@?0???$?6U?$char_traits@D@std@@@std@@YAAEAV?$basic_ostream@DU?$char_traits@D@std@@@0@AEAV10@PEBD@Z@4HA PROC ; `std::operator<<<std::char_traits<char> >'::`1'::dtor$0
  00000	48 89 4c 24 08	 mov	 QWORD PTR [rsp+8], rcx
  00005	48 89 54 24 10	 mov	 QWORD PTR [rsp+16], rdx
  0000a	55		 push	 rbp
  0000b	57		 push	 rdi
  0000c	48 83 ec 28	 sub	 rsp, 40			; 00000028H
  00010	48 8d 6a 20	 lea	 rbp, QWORD PTR [rdx+32]
  00014	48 8d 4d 68	 lea	 rcx, QWORD PTR _Ok$[rbp]
  00018	e8 00 00 00 00	 call	 ??1sentry@?$basic_ostream@DU?$char_traits@D@std@@@std@@QEAA@XZ ; std::basic_ostream<char,std::char_traits<char> >::sentry::~sentry
  0001d	48 83 c4 28	 add	 rsp, 40			; 00000028H
  00021	5f		 pop	 rdi
  00022	5d		 pop	 rbp
  00023	c3		 ret	 0
?dtor$0@?0???$?6U?$char_traits@D@std@@@std@@YAAEAV?$basic_ostream@DU?$char_traits@D@std@@@0@AEAV10@PEBD@Z@4HA ENDP ; `std::operator<<<std::char_traits<char> >'::`1'::dtor$0
text$x	ENDS
; Function compile flags: /Odtp /RTCsu /ZI
;	COMDAT text$x
text$x	SEGMENT
_State$ = 4
_Count$ = 40
_Pad$ = 72
_Ok$ = 104
$T4 = 340
$T5 = 372
$T6 = 404
$T7 = 436
$T8 = 472
tv300 = 484
tv295 = 484
tv139 = 484
tv301 = 488
tv298 = 488
tv296 = 488
tv137 = 488
tv302 = 496
tv299 = 496
tv297 = 496
__$ArrayPad$ = 504
_Ostr$ = 544
_Val$ = 552
?catch$1@?0???$?6U?$char_traits@D@std@@@std@@YAAEAV?$basic_ostream@DU?$char_traits@D@std@@@0@AEAV10@PEBD@Z@4HA PROC ; `std::operator<<<std::char_traits<char> >'::`1'::catch$1

; 794  :         _CATCH_IO_(ios_base, _Ostr)

  00000	48 89 4c 24 08	 mov	 QWORD PTR [rsp+8], rcx
  00005	48 89 54 24 10	 mov	 QWORD PTR [rsp+16], rdx
  0000a	55		 push	 rbp
  0000b	57		 push	 rdi
  0000c	48 83 ec 28	 sub	 rsp, 40			; 00000028H
  00010	48 8d 6a 20	 lea	 rbp, QWORD PTR [rdx+32]
__catch$??$?6U?$char_traits@D@std@@@std@@YAAEAV?$basic_ostream@DU?$char_traits@D@std@@@0@AEAV10@PEBD@Z$0:
  00014	48 8b 85 20 02
	00 00		 mov	 rax, QWORD PTR _Ostr$[rbp]
  0001b	48 8b 00	 mov	 rax, QWORD PTR [rax]
  0001e	48 63 40 04	 movsxd	 rax, DWORD PTR [rax+4]
  00022	48 8b 8d 20 02
	00 00		 mov	 rcx, QWORD PTR _Ostr$[rbp]
  00029	48 03 c8	 add	 rcx, rax
  0002c	48 8b c1	 mov	 rax, rcx
  0002f	41 b0 01	 mov	 r8b, 1
  00032	ba 04 00 00 00	 mov	 edx, 4
  00037	48 8b c8	 mov	 rcx, rax
  0003a	ff 15 00 00 00
	00		 call	 QWORD PTR __imp_?setstate@?$basic_ios@DU?$char_traits@D@std@@@std@@QEAAXH_N@Z
  00040	90		 npad	 1
  00041	48 8d 05 00 00
	00 00		 lea	 rax, $LN23@catch$1
  00048	48 83 c4 28	 add	 rsp, 40			; 00000028H
  0004c	5f		 pop	 rdi
  0004d	5d		 pop	 rbp
  0004e	c3		 ret	 0
  0004f	cc		 int	 3
?catch$1@?0???$?6U?$char_traits@D@std@@@std@@YAAEAV?$basic_ostream@DU?$char_traits@D@std@@@0@AEAV10@PEBD@Z@4HA ENDP ; `std::operator<<<std::char_traits<char> >'::`1'::catch$1
text$x	ENDS
; Function compile flags: /Odtp /RTCsu /ZI
; File D:\2 \\ 1\Laba1\Laba1.cpp
;	COMDAT main
_TEXT	SEGMENT
day$ = 4
month$ = 36
year$ = 68
my_birthday_leap_year$ = 100
my_birthday_not_leap_year$ = 132
leap_year_february$ = 164
day_number$ = 196
tv379 = 404
__$ArrayPad$ = 408
main	PROC						; COMDAT

; 10   : int main() {

$LN37:
  00000	40 55		 push	 rbp
  00002	57		 push	 rdi
  00003	48 81 ec c8 01
	00 00		 sub	 rsp, 456		; 000001c8H
  0000a	48 8d 6c 24 20	 lea	 rbp, QWORD PTR [rsp+32]
  0000f	48 8d 7c 24 20	 lea	 rdi, QWORD PTR [rsp+32]
  00014	b9 3a 00 00 00	 mov	 ecx, 58			; 0000003aH
  00019	b8 cc cc cc cc	 mov	 eax, -858993460		; ccccccccH
  0001e	f3 ab		 rep stosd
  00020	48 8b 05 00 00
	00 00		 mov	 rax, QWORD PTR __security_cookie
  00027	48 33 c5	 xor	 rax, rbp
  0002a	48 89 85 98 01
	00 00		 mov	 QWORD PTR __$ArrayPad$[rbp], rax
  00031	48 8d 0d 00 00
	00 00		 lea	 rcx, OFFSET FLAT:__7198BCB7_Laba1@cpp
  00038	e8 00 00 00 00	 call	 __CheckForDebuggerJustMyCode

; 11   : 	setlocale(LC_ALL, "rus");

  0003d	48 8d 15 00 00
	00 00		 lea	 rdx, OFFSET FLAT:??_C@_03EJKFMIHK@rus@
  00044	33 c9		 xor	 ecx, ecx
  00046	ff 15 00 00 00
	00		 call	 QWORD PTR __imp_setlocale

; 12   : 	int day, month, year;
; 13   : 	int my_birthday_leap_year = 355;

  0004c	c7 45 64 63 01
	00 00		 mov	 DWORD PTR my_birthday_leap_year$[rbp], 355 ; 00000163H

; 14   : 	int my_birthday_not_leap_year = 354;

  00053	c7 85 84 00 00
	00 62 01 00 00	 mov	 DWORD PTR my_birthday_not_leap_year$[rbp], 354 ; 00000162H
$LN2@main:

; 15   : 	for (;;) {
; 16   : 		cout << "\n    (): "; cin >> year;

  0005d	48 8d 15 00 00
	00 00		 lea	 rdx, OFFSET FLAT:??_C@_0CH@GJBGONHG@?6?B?b?e?d?h?r?e?5?c?n?d?5?b?5?t?n?p?l?$OA?r?e?5?C?C?C?C?$CI?v?h?t@
  00064	48 8b 0d 00 00
	00 00		 mov	 rcx, QWORD PTR __imp_?cout@std@@3V?$basic_ostream@DU?$char_traits@D@std@@@1@A
  0006b	e8 00 00 00 00	 call	 ??$?6U?$char_traits@D@std@@@std@@YAAEAV?$basic_ostream@DU?$char_traits@D@std@@@0@AEAV10@PEBD@Z ; std::operator<<<std::char_traits<char> >
  00070	48 8d 55 44	 lea	 rdx, QWORD PTR year$[rbp]
  00074	48 8b 0d 00 00
	00 00		 mov	 rcx, QWORD PTR __imp_?cin@std@@3V?$basic_istream@DU?$char_traits@D@std@@@1@A
  0007b	ff 15 00 00 00
	00		 call	 QWORD PTR __imp_??5?$basic_istream@DU?$char_traits@D@std@@@std@@QEAAAEAV01@AEAH@Z

; 17   : 		if (!cin) {

  00081	48 8b 05 00 00
	00 00		 mov	 rax, QWORD PTR __imp_?cin@std@@3V?$basic_istream@DU?$char_traits@D@std@@@1@A
  00088	48 8b 00	 mov	 rax, QWORD PTR [rax]
  0008b	48 63 40 04	 movsxd	 rax, DWORD PTR [rax+4]
  0008f	48 8b 0d 00 00
	00 00		 mov	 rcx, QWORD PTR __imp_?cin@std@@3V?$basic_istream@DU?$char_traits@D@std@@@1@A
  00096	48 03 c8	 add	 rcx, rax
  00099	48 8b c1	 mov	 rax, rcx
  0009c	48 8b c8	 mov	 rcx, rax
  0009f	ff 15 00 00 00
	00		 call	 QWORD PTR __imp_??7ios_base@std@@QEBA_NXZ
  000a5	0f b6 c0	 movzx	 eax, al
  000a8	85 c0		 test	 eax, eax
  000aa	74 66		 je	 SHORT $LN11@main

; 18   : 			cout << "\n,     !" << endl;

  000ac	48 8d 15 00 00
	00 00		 lea	 rdx, OFFSET FLAT:??_C@_0CK@GAMEFMOH@?6?O?n?l?m?h?r?e?0?5?m?h?5?n?d?m?n?c?n?5?q?h?l?b?n?k?$OA?5?q?5?j@
  000b3	48 8b 0d 00 00
	00 00		 mov	 rcx, QWORD PTR __imp_?cout@std@@3V?$basic_ostream@DU?$char_traits@D@std@@@1@A
  000ba	e8 00 00 00 00	 call	 ??$?6U?$char_traits@D@std@@@std@@YAAEAV?$basic_ostream@DU?$char_traits@D@std@@@0@AEAV10@PEBD@Z ; std::operator<<<std::char_traits<char> >
  000bf	48 8d 15 00 00
	00 00		 lea	 rdx, OFFSET FLAT:??$endl@DU?$char_traits@D@std@@@std@@YAAEAV?$basic_ostream@DU?$char_traits@D@std@@@0@AEAV10@@Z ; std::endl<char,std::char_traits<char> >
  000c6	48 8b c8	 mov	 rcx, rax
  000c9	ff 15 00 00 00
	00		 call	 QWORD PTR __imp_??6?$basic_ostream@DU?$char_traits@D@std@@@std@@QEAAAEAV01@P6AAEAV01@AEAV01@@Z@Z

; 19   : 			cin.clear();

  000cf	48 8b 05 00 00
	00 00		 mov	 rax, QWORD PTR __imp_?cin@std@@3V?$basic_istream@DU?$char_traits@D@std@@@1@A
  000d6	48 8b 00	 mov	 rax, QWORD PTR [rax]
  000d9	48 63 40 04	 movsxd	 rax, DWORD PTR [rax+4]
  000dd	48 8b 0d 00 00
	00 00		 mov	 rcx, QWORD PTR __imp_?cin@std@@3V?$basic_istream@DU?$char_traits@D@std@@@1@A
  000e4	48 03 c8	 add	 rcx, rax
  000e7	48 8b c1	 mov	 rax, rcx
  000ea	45 33 c0	 xor	 r8d, r8d
  000ed	33 d2		 xor	 edx, edx
  000ef	48 8b c8	 mov	 rcx, rax
  000f2	ff 15 00 00 00
	00		 call	 QWORD PTR __imp_?clear@?$basic_ios@DU?$char_traits@D@std@@@std@@QEAAXH_N@Z

; 20   : 			cin.ignore(1000000, '\n');

  000f8	41 b8 0a 00 00
	00		 mov	 r8d, 10
  000fe	ba 40 42 0f 00	 mov	 edx, 1000000		; 000f4240H
  00103	48 8b 0d 00 00
	00 00		 mov	 rcx, QWORD PTR __imp_?cin@std@@3V?$basic_istream@DU?$char_traits@D@std@@@1@A
  0010a	ff 15 00 00 00
	00		 call	 QWORD PTR __imp_?ignore@?$basic_istream@DU?$char_traits@D@std@@@std@@QEAAAEAV12@_JH@Z

; 21   : 		}

  00110	eb 6e		 jmp	 SHORT $LN12@main
$LN11@main:

; 22   : 		else if (year <= 0) {

  00112	83 7d 44 00	 cmp	 DWORD PTR year$[rbp], 0
  00116	7f 66		 jg	 SHORT $LN13@main

; 23   : 			cout << "\n    !" << endl;

  00118	48 8d 15 00 00
	00 00		 lea	 rdx, OFFSET FLAT:??_C@_0BM@JCNKCMKH@?6?C?n?d?5?d?n?k?f?e?m?5?a?$PL?r?$PM?5?m?$OA?x?e?i?5?$PN?p?$PL?$CB@
  0011f	48 8b 0d 00 00
	00 00		 mov	 rcx, QWORD PTR __imp_?cout@std@@3V?$basic_ostream@DU?$char_traits@D@std@@@1@A
  00126	e8 00 00 00 00	 call	 ??$?6U?$char_traits@D@std@@@std@@YAAEAV?$basic_ostream@DU?$char_traits@D@std@@@0@AEAV10@PEBD@Z ; std::operator<<<std::char_traits<char> >
  0012b	48 8d 15 00 00
	00 00		 lea	 rdx, OFFSET FLAT:??$endl@DU?$char_traits@D@std@@@std@@YAAEAV?$basic_ostream@DU?$char_traits@D@std@@@0@AEAV10@@Z ; std::endl<char,std::char_traits<char> >
  00132	48 8b c8	 mov	 rcx, rax
  00135	ff 15 00 00 00
	00		 call	 QWORD PTR __imp_??6?$basic_ostream@DU?$char_traits@D@std@@@std@@QEAAAEAV01@P6AAEAV01@AEAV01@@Z@Z

; 24   : 			cin.clear();

  0013b	48 8b 05 00 00
	00 00		 mov	 rax, QWORD PTR __imp_?cin@std@@3V?$basic_istream@DU?$char_traits@D@std@@@1@A
  00142	48 8b 00	 mov	 rax, QWORD PTR [rax]
  00145	48 63 40 04	 movsxd	 rax, DWORD PTR [rax+4]
  00149	48 8b 0d 00 00
	00 00		 mov	 rcx, QWORD PTR __imp_?cin@std@@3V?$basic_istream@DU?$char_traits@D@std@@@1@A
  00150	48 03 c8	 add	 rcx, rax
  00153	48 8b c1	 mov	 rax, rcx
  00156	45 33 c0	 xor	 r8d, r8d
  00159	33 d2		 xor	 edx, edx
  0015b	48 8b c8	 mov	 rcx, rax
  0015e	ff 15 00 00 00
	00		 call	 QWORD PTR __imp_?clear@?$basic_ios@DU?$char_traits@D@std@@@std@@QEAAXH_N@Z

; 25   : 			cin.ignore(1000000, '\n');

  00164	41 b8 0a 00 00
	00		 mov	 r8d, 10
  0016a	ba 40 42 0f 00	 mov	 edx, 1000000		; 000f4240H
  0016f	48 8b 0d 00 00
	00 00		 mov	 rcx, QWORD PTR __imp_?cin@std@@3V?$basic_istream@DU?$char_traits@D@std@@@1@A
  00176	ff 15 00 00 00
	00		 call	 QWORD PTR __imp_?ignore@?$basic_istream@DU?$char_traits@D@std@@@std@@QEAAAEAV12@_JH@Z

; 26   : 		}

  0017c	eb 02		 jmp	 SHORT $LN14@main
$LN13@main:

; 27   : 		else
; 28   : 			break;

  0017e	eb 05		 jmp	 SHORT $LN3@main
$LN14@main:
$LN12@main:

; 29   : 	}

  00180	e9 d8 fe ff ff	 jmp	 $LN2@main
$LN3@main:

; 30   : 	bool leap_year_february = leap_year(year);

  00185	8b 4d 44	 mov	 ecx, DWORD PTR year$[rbp]
  00188	e8 00 00 00 00	 call	 ?leap_year@@YA_NH@Z	; leap_year
  0018d	88 85 a4 00 00
	00		 mov	 BYTE PTR leap_year_february$[rbp], al
$LN5@main:

; 31   : 	for (;;) {
; 32   : 		cout << "\n    (): "; cin >> month;

  00193	48 8d 15 00 00
	00 00		 lea	 rdx, OFFSET FLAT:??_C@_0CH@BKOPGICG@?6?B?b?e?d?h?r?e?5?l?e?q?$PP?v?5?b?5?t?n?p?l?$OA?r?e?5?L?L?$CI?v?h?t@
  0019a	48 8b 0d 00 00
	00 00		 mov	 rcx, QWORD PTR __imp_?cout@std@@3V?$basic_ostream@DU?$char_traits@D@std@@@1@A
  001a1	e8 00 00 00 00	 call	 ??$?6U?$char_traits@D@std@@@std@@YAAEAV?$basic_ostream@DU?$char_traits@D@std@@@0@AEAV10@PEBD@Z ; std::operator<<<std::char_traits<char> >
  001a6	48 8d 55 24	 lea	 rdx, QWORD PTR month$[rbp]
  001aa	48 8b 0d 00 00
	00 00		 mov	 rcx, QWORD PTR __imp_?cin@std@@3V?$basic_istream@DU?$char_traits@D@std@@@1@A
  001b1	ff 15 00 00 00
	00		 call	 QWORD PTR __imp_??5?$basic_istream@DU?$char_traits@D@std@@@std@@QEAAAEAV01@AEAH@Z

; 33   : 		if (!cin) {

  001b7	48 8b 05 00 00
	00 00		 mov	 rax, QWORD PTR __imp_?cin@std@@3V?$basic_istream@DU?$char_traits@D@std@@@1@A
  001be	48 8b 00	 mov	 rax, QWORD PTR [rax]
  001c1	48 63 40 04	 movsxd	 rax, DWORD PTR [rax+4]
  001c5	48 8b 0d 00 00
	00 00		 mov	 rcx, QWORD PTR __imp_?cin@std@@3V?$basic_istream@DU?$char_traits@D@std@@@1@A
  001cc	48 03 c8	 add	 rcx, rax
  001cf	48 8b c1	 mov	 rax, rcx
  001d2	48 8b c8	 mov	 rcx, rax
  001d5	ff 15 00 00 00
	00		 call	 QWORD PTR __imp_??7ios_base@std@@QEBA_NXZ
  001db	0f b6 c0	 movzx	 eax, al
  001de	85 c0		 test	 eax, eax
  001e0	74 66		 je	 SHORT $LN15@main

; 34   : 			cout << "\n ,     !" << endl;

  001e2	48 8d 15 00 00
	00 00		 lea	 rdx, OFFSET FLAT:??_C@_0CM@BKJOKDCE@?6?H?5?o?n?l?m?h?r?e?0?5?m?h?5?n?d?m?n?c?n?5?q?h?l?b?n?k?$OA?5?q@
  001e9	48 8b 0d 00 00
	00 00		 mov	 rcx, QWORD PTR __imp_?cout@std@@3V?$basic_ostream@DU?$char_traits@D@std@@@1@A
  001f0	e8 00 00 00 00	 call	 ??$?6U?$char_traits@D@std@@@std@@YAAEAV?$basic_ostream@DU?$char_traits@D@std@@@0@AEAV10@PEBD@Z ; std::operator<<<std::char_traits<char> >
  001f5	48 8d 15 00 00
	00 00		 lea	 rdx, OFFSET FLAT:??$endl@DU?$char_traits@D@std@@@std@@YAAEAV?$basic_ostream@DU?$char_traits@D@std@@@0@AEAV10@@Z ; std::endl<char,std::char_traits<char> >
  001fc	48 8b c8	 mov	 rcx, rax
  001ff	ff 15 00 00 00
	00		 call	 QWORD PTR __imp_??6?$basic_ostream@DU?$char_traits@D@std@@@std@@QEAAAEAV01@P6AAEAV01@AEAV01@@Z@Z

; 35   : 			cin.clear();

  00205	48 8b 05 00 00
	00 00		 mov	 rax, QWORD PTR __imp_?cin@std@@3V?$basic_istream@DU?$char_traits@D@std@@@1@A
  0020c	48 8b 00	 mov	 rax, QWORD PTR [rax]
  0020f	48 63 40 04	 movsxd	 rax, DWORD PTR [rax+4]
  00213	48 8b 0d 00 00
	00 00		 mov	 rcx, QWORD PTR __imp_?cin@std@@3V?$basic_istream@DU?$char_traits@D@std@@@1@A
  0021a	48 03 c8	 add	 rcx, rax
  0021d	48 8b c1	 mov	 rax, rcx
  00220	45 33 c0	 xor	 r8d, r8d
  00223	33 d2		 xor	 edx, edx
  00225	48 8b c8	 mov	 rcx, rax
  00228	ff 15 00 00 00
	00		 call	 QWORD PTR __imp_?clear@?$basic_ios@DU?$char_traits@D@std@@@std@@QEAAXH_N@Z

; 36   : 			cin.ignore(1000000, '\n');

  0022e	41 b8 0a 00 00
	00		 mov	 r8d, 10
  00234	ba 40 42 0f 00	 mov	 edx, 1000000		; 000f4240H
  00239	48 8b 0d 00 00
	00 00		 mov	 rcx, QWORD PTR __imp_?cin@std@@3V?$basic_istream@DU?$char_traits@D@std@@@1@A
  00240	ff 15 00 00 00
	00		 call	 QWORD PTR __imp_?ignore@?$basic_istream@DU?$char_traits@D@std@@@std@@QEAAAEAV12@_JH@Z

; 37   : 		}

  00246	eb 74		 jmp	 SHORT $LN16@main
$LN15@main:

; 38   : 		else if (month < 1 || month>12) {

  00248	83 7d 24 01	 cmp	 DWORD PTR month$[rbp], 1
  0024c	7c 06		 jl	 SHORT $LN19@main
  0024e	83 7d 24 0c	 cmp	 DWORD PTR month$[rbp], 12
  00252	7e 66		 jle	 SHORT $LN17@main
$LN19@main:

; 39   : 			cout << "\n  !" << endl;

  00254	48 8d 15 00 00
	00 00		 lea	 rdx, OFFSET FLAT:??_C@_0BE@CPMNDBJJ@?6?M?e?r?5?r?$OA?j?n?c?n?5?l?e?q?$PP?v?$OA?$CB@
  0025b	48 8b 0d 00 00
	00 00		 mov	 rcx, QWORD PTR __imp_?cout@std@@3V?$basic_ostream@DU?$char_traits@D@std@@@1@A
  00262	e8 00 00 00 00	 call	 ??$?6U?$char_traits@D@std@@@std@@YAAEAV?$basic_ostream@DU?$char_traits@D@std@@@0@AEAV10@PEBD@Z ; std::operator<<<std::char_traits<char> >
  00267	48 8d 15 00 00
	00 00		 lea	 rdx, OFFSET FLAT:??$endl@DU?$char_traits@D@std@@@std@@YAAEAV?$basic_ostream@DU?$char_traits@D@std@@@0@AEAV10@@Z ; std::endl<char,std::char_traits<char> >
  0026e	48 8b c8	 mov	 rcx, rax
  00271	ff 15 00 00 00
	00		 call	 QWORD PTR __imp_??6?$basic_ostream@DU?$char_traits@D@std@@@std@@QEAAAEAV01@P6AAEAV01@AEAV01@@Z@Z

; 40   : 			cin.clear();

  00277	48 8b 05 00 00
	00 00		 mov	 rax, QWORD PTR __imp_?cin@std@@3V?$basic_istream@DU?$char_traits@D@std@@@1@A
  0027e	48 8b 00	 mov	 rax, QWORD PTR [rax]
  00281	48 63 40 04	 movsxd	 rax, DWORD PTR [rax+4]
  00285	48 8b 0d 00 00
	00 00		 mov	 rcx, QWORD PTR __imp_?cin@std@@3V?$basic_istream@DU?$char_traits@D@std@@@1@A
  0028c	48 03 c8	 add	 rcx, rax
  0028f	48 8b c1	 mov	 rax, rcx
  00292	45 33 c0	 xor	 r8d, r8d
  00295	33 d2		 xor	 edx, edx
  00297	48 8b c8	 mov	 rcx, rax
  0029a	ff 15 00 00 00
	00		 call	 QWORD PTR __imp_?clear@?$basic_ios@DU?$char_traits@D@std@@@std@@QEAAXH_N@Z

; 41   : 			cin.ignore(1000000, '\n');

  002a0	41 b8 0a 00 00
	00		 mov	 r8d, 10
  002a6	ba 40 42 0f 00	 mov	 edx, 1000000		; 000f4240H
  002ab	48 8b 0d 00 00
	00 00		 mov	 rcx, QWORD PTR __imp_?cin@std@@3V?$basic_istream@DU?$char_traits@D@std@@@1@A
  002b2	ff 15 00 00 00
	00		 call	 QWORD PTR __imp_?ignore@?$basic_istream@DU?$char_traits@D@std@@@std@@QEAAAEAV12@_JH@Z

; 42   : 		}

  002b8	eb 02		 jmp	 SHORT $LN18@main
$LN17@main:

; 43   : 		else
; 44   : 			break;

  002ba	eb 05		 jmp	 SHORT $LN6@main
$LN18@main:
$LN16@main:

; 45   : 	}

  002bc	e9 d2 fe ff ff	 jmp	 $LN5@main
$LN6@main:

; 46   : 	month_name(month);

  002c1	8b 4d 24	 mov	 ecx, DWORD PTR month$[rbp]
  002c4	e8 00 00 00 00	 call	 ?month_name@@YAXH@Z	; month_name
$LN8@main:

; 47   : 	for (;;) {
; 48   : 		cout << "\n    (): "; cin >> day;

  002c9	48 8d 15 00 00
	00 00		 lea	 rdx, OFFSET FLAT:??_C@_0CG@HANCCLNH@?6?B?b?e?d?h?r?e?5?d?e?m?$PM?5?b?5?t?n?p?l?$OA?r?e?5?D?D?$CI?v?h?t?p@
  002d0	48 8b 0d 00 00
	00 00		 mov	 rcx, QWORD PTR __imp_?cout@std@@3V?$basic_ostream@DU?$char_traits@D@std@@@1@A
  002d7	e8 00 00 00 00	 call	 ??$?6U?$char_traits@D@std@@@std@@YAAEAV?$basic_ostream@DU?$char_traits@D@std@@@0@AEAV10@PEBD@Z ; std::operator<<<std::char_traits<char> >
  002dc	48 8d 55 04	 lea	 rdx, QWORD PTR day$[rbp]
  002e0	48 8b 0d 00 00
	00 00		 mov	 rcx, QWORD PTR __imp_?cin@std@@3V?$basic_istream@DU?$char_traits@D@std@@@1@A
  002e7	ff 15 00 00 00
	00		 call	 QWORD PTR __imp_??5?$basic_istream@DU?$char_traits@D@std@@@std@@QEAAAEAV01@AEAH@Z

; 49   : 		if (!cin) {

  002ed	48 8b 05 00 00
	00 00		 mov	 rax, QWORD PTR __imp_?cin@std@@3V?$basic_istream@DU?$char_traits@D@std@@@1@A
  002f4	48 8b 00	 mov	 rax, QWORD PTR [rax]
  002f7	48 63 40 04	 movsxd	 rax, DWORD PTR [rax+4]
  002fb	48 8b 0d 00 00
	00 00		 mov	 rcx, QWORD PTR __imp_?cin@std@@3V?$basic_istream@DU?$char_traits@D@std@@@1@A
  00302	48 03 c8	 add	 rcx, rax
  00305	48 8b c1	 mov	 rax, rcx
  00308	48 8b c8	 mov	 rcx, rax
  0030b	ff 15 00 00 00
	00		 call	 QWORD PTR __imp_??7ios_base@std@@QEBA_NXZ
  00311	0f b6 c0	 movzx	 eax, al
  00314	85 c0		 test	 eax, eax
  00316	74 69		 je	 SHORT $LN20@main

; 50   : 			cout << "\n ,     !" << endl;

  00318	48 8d 15 00 00
	00 00		 lea	 rdx, OFFSET FLAT:??_C@_0CM@BKJOKDCE@?6?H?5?o?n?l?m?h?r?e?0?5?m?h?5?n?d?m?n?c?n?5?q?h?l?b?n?k?$OA?5?q@
  0031f	48 8b 0d 00 00
	00 00		 mov	 rcx, QWORD PTR __imp_?cout@std@@3V?$basic_ostream@DU?$char_traits@D@std@@@1@A
  00326	e8 00 00 00 00	 call	 ??$?6U?$char_traits@D@std@@@std@@YAAEAV?$basic_ostream@DU?$char_traits@D@std@@@0@AEAV10@PEBD@Z ; std::operator<<<std::char_traits<char> >
  0032b	48 8d 15 00 00
	00 00		 lea	 rdx, OFFSET FLAT:??$endl@DU?$char_traits@D@std@@@std@@YAAEAV?$basic_ostream@DU?$char_traits@D@std@@@0@AEAV10@@Z ; std::endl<char,std::char_traits<char> >
  00332	48 8b c8	 mov	 rcx, rax
  00335	ff 15 00 00 00
	00		 call	 QWORD PTR __imp_??6?$basic_ostream@DU?$char_traits@D@std@@@std@@QEAAAEAV01@P6AAEAV01@AEAV01@@Z@Z

; 51   : 			cin.clear();

  0033b	48 8b 05 00 00
	00 00		 mov	 rax, QWORD PTR __imp_?cin@std@@3V?$basic_istream@DU?$char_traits@D@std@@@1@A
  00342	48 8b 00	 mov	 rax, QWORD PTR [rax]
  00345	48 63 40 04	 movsxd	 rax, DWORD PTR [rax+4]
  00349	48 8b 0d 00 00
	00 00		 mov	 rcx, QWORD PTR __imp_?cin@std@@3V?$basic_istream@DU?$char_traits@D@std@@@1@A
  00350	48 03 c8	 add	 rcx, rax
  00353	48 8b c1	 mov	 rax, rcx
  00356	45 33 c0	 xor	 r8d, r8d
  00359	33 d2		 xor	 edx, edx
  0035b	48 8b c8	 mov	 rcx, rax
  0035e	ff 15 00 00 00
	00		 call	 QWORD PTR __imp_?clear@?$basic_ios@DU?$char_traits@D@std@@@std@@QEAAXH_N@Z

; 52   : 			cin.ignore(1000000, '\n');

  00364	41 b8 0a 00 00
	00		 mov	 r8d, 10
  0036a	ba 40 42 0f 00	 mov	 edx, 1000000		; 000f4240H
  0036f	48 8b 0d 00 00
	00 00		 mov	 rcx, QWORD PTR __imp_?cin@std@@3V?$basic_istream@DU?$char_traits@D@std@@@1@A
  00376	ff 15 00 00 00
	00		 call	 QWORD PTR __imp_?ignore@?$basic_istream@DU?$char_traits@D@std@@@std@@QEAAAEAV12@_JH@Z

; 53   : 		}

  0037c	e9 4a 02 00 00	 jmp	 $LN21@main
$LN20@main:

; 54   : 		else if (day <= 0) {

  00381	83 7d 04 00	 cmp	 DWORD PTR day$[rbp], 0
  00385	7f 69		 jg	 SHORT $LN22@main

; 55   : 			cout << "\n      !" << endl;

  00387	48 8d 15 00 00
	00 00		 lea	 rdx, OFFSET FLAT:??_C@_0CD@CELOEKHK@?6?M?h?5?b?5?n?d?m?n?l?5?l?e?q?$PP?v?e?5?m?e?r?5?r?$OA?j?n?c?n?5?d@
  0038e	48 8b 0d 00 00
	00 00		 mov	 rcx, QWORD PTR __imp_?cout@std@@3V?$basic_ostream@DU?$char_traits@D@std@@@1@A
  00395	e8 00 00 00 00	 call	 ??$?6U?$char_traits@D@std@@@std@@YAAEAV?$basic_ostream@DU?$char_traits@D@std@@@0@AEAV10@PEBD@Z ; std::operator<<<std::char_traits<char> >
  0039a	48 8d 15 00 00
	00 00		 lea	 rdx, OFFSET FLAT:??$endl@DU?$char_traits@D@std@@@std@@YAAEAV?$basic_ostream@DU?$char_traits@D@std@@@0@AEAV10@@Z ; std::endl<char,std::char_traits<char> >
  003a1	48 8b c8	 mov	 rcx, rax
  003a4	ff 15 00 00 00
	00		 call	 QWORD PTR __imp_??6?$basic_ostream@DU?$char_traits@D@std@@@std@@QEAAAEAV01@P6AAEAV01@AEAV01@@Z@Z

; 56   : 			cin.clear();

  003aa	48 8b 05 00 00
	00 00		 mov	 rax, QWORD PTR __imp_?cin@std@@3V?$basic_istream@DU?$char_traits@D@std@@@1@A
  003b1	48 8b 00	 mov	 rax, QWORD PTR [rax]
  003b4	48 63 40 04	 movsxd	 rax, DWORD PTR [rax+4]
  003b8	48 8b 0d 00 00
	00 00		 mov	 rcx, QWORD PTR __imp_?cin@std@@3V?$basic_istream@DU?$char_traits@D@std@@@1@A
  003bf	48 03 c8	 add	 rcx, rax
  003c2	48 8b c1	 mov	 rax, rcx
  003c5	45 33 c0	 xor	 r8d, r8d
  003c8	33 d2		 xor	 edx, edx
  003ca	48 8b c8	 mov	 rcx, rax
  003cd	ff 15 00 00 00
	00		 call	 QWORD PTR __imp_?clear@?$basic_ios@DU?$char_traits@D@std@@@std@@QEAAXH_N@Z

; 57   : 			cin.ignore(1000000, '\n');

  003d3	41 b8 0a 00 00
	00		 mov	 r8d, 10
  003d9	ba 40 42 0f 00	 mov	 edx, 1000000		; 000f4240H
  003de	48 8b 0d 00 00
	00 00		 mov	 rcx, QWORD PTR __imp_?cin@std@@3V?$basic_istream@DU?$char_traits@D@std@@@1@A
  003e5	ff 15 00 00 00
	00		 call	 QWORD PTR __imp_?ignore@?$basic_istream@DU?$char_traits@D@std@@@std@@QEAAAEAV12@_JH@Z

; 58   : 		}

  003eb	e9 db 01 00 00	 jmp	 $LN23@main
$LN22@main:

; 59   : 		else if ((month==1 || month == 3 || month == 5 || month == 7 || month == 8 || month == 10 || month == 12) && day > 31) {

  003f0	83 7d 24 01	 cmp	 DWORD PTR month$[rbp], 1
  003f4	74 24		 je	 SHORT $LN26@main
  003f6	83 7d 24 03	 cmp	 DWORD PTR month$[rbp], 3
  003fa	74 1e		 je	 SHORT $LN26@main
  003fc	83 7d 24 05	 cmp	 DWORD PTR month$[rbp], 5
  00400	74 18		 je	 SHORT $LN26@main
  00402	83 7d 24 07	 cmp	 DWORD PTR month$[rbp], 7
  00406	74 12		 je	 SHORT $LN26@main
  00408	83 7d 24 08	 cmp	 DWORD PTR month$[rbp], 8
  0040c	74 0c		 je	 SHORT $LN26@main
  0040e	83 7d 24 0a	 cmp	 DWORD PTR month$[rbp], 10
  00412	74 06		 je	 SHORT $LN26@main
  00414	83 7d 24 0c	 cmp	 DWORD PTR month$[rbp], 12
  00418	75 6f		 jne	 SHORT $LN24@main
$LN26@main:
  0041a	83 7d 04 1f	 cmp	 DWORD PTR day$[rbp], 31
  0041e	7e 69		 jle	 SHORT $LN24@main

; 60   : 			cout << "\n    31 !" << endl;

  00420	48 8d 15 00 00
	00 00		 lea	 rdx, OFFSET FLAT:??_C@_0BP@KKJIAMBJ@?6?B?5?$PN?r?n?l?5?l?e?q?$PP?v?e?5?r?n?k?$PM?j?n?531?5?d?e?m?$PM?$CB@
  00427	48 8b 0d 00 00
	00 00		 mov	 rcx, QWORD PTR __imp_?cout@std@@3V?$basic_ostream@DU?$char_traits@D@std@@@1@A
  0042e	e8 00 00 00 00	 call	 ??$?6U?$char_traits@D@std@@@std@@YAAEAV?$basic_ostream@DU?$char_traits@D@std@@@0@AEAV10@PEBD@Z ; std::operator<<<std::char_traits<char> >
  00433	48 8d 15 00 00
	00 00		 lea	 rdx, OFFSET FLAT:??$endl@DU?$char_traits@D@std@@@std@@YAAEAV?$basic_ostream@DU?$char_traits@D@std@@@0@AEAV10@@Z ; std::endl<char,std::char_traits<char> >
  0043a	48 8b c8	 mov	 rcx, rax
  0043d	ff 15 00 00 00
	00		 call	 QWORD PTR __imp_??6?$basic_ostream@DU?$char_traits@D@std@@@std@@QEAAAEAV01@P6AAEAV01@AEAV01@@Z@Z

; 61   : 			cin.clear();

  00443	48 8b 05 00 00
	00 00		 mov	 rax, QWORD PTR __imp_?cin@std@@3V?$basic_istream@DU?$char_traits@D@std@@@1@A
  0044a	48 8b 00	 mov	 rax, QWORD PTR [rax]
  0044d	48 63 40 04	 movsxd	 rax, DWORD PTR [rax+4]
  00451	48 8b 0d 00 00
	00 00		 mov	 rcx, QWORD PTR __imp_?cin@std@@3V?$basic_istream@DU?$char_traits@D@std@@@1@A
  00458	48 03 c8	 add	 rcx, rax
  0045b	48 8b c1	 mov	 rax, rcx
  0045e	45 33 c0	 xor	 r8d, r8d
  00461	33 d2		 xor	 edx, edx
  00463	48 8b c8	 mov	 rcx, rax
  00466	ff 15 00 00 00
	00		 call	 QWORD PTR __imp_?clear@?$basic_ios@DU?$char_traits@D@std@@@std@@QEAAXH_N@Z

; 62   : 			cin.ignore(1000000, '\n');

  0046c	41 b8 0a 00 00
	00		 mov	 r8d, 10
  00472	ba 40 42 0f 00	 mov	 edx, 1000000		; 000f4240H
  00477	48 8b 0d 00 00
	00 00		 mov	 rcx, QWORD PTR __imp_?cin@std@@3V?$basic_istream@DU?$char_traits@D@std@@@1@A
  0047e	ff 15 00 00 00
	00		 call	 QWORD PTR __imp_?ignore@?$basic_istream@DU?$char_traits@D@std@@@std@@QEAAAEAV12@_JH@Z

; 63   : 		}

  00484	e9 42 01 00 00	 jmp	 $LN25@main
$LN24@main:

; 64   : 		else if (leap_year_february && month == 2 && day > 29) {

  00489	0f b6 85 a4 00
	00 00		 movzx	 eax, BYTE PTR leap_year_february$[rbp]
  00490	85 c0		 test	 eax, eax
  00492	74 75		 je	 SHORT $LN27@main
  00494	83 7d 24 02	 cmp	 DWORD PTR month$[rbp], 2
  00498	75 6f		 jne	 SHORT $LN27@main
  0049a	83 7d 04 1d	 cmp	 DWORD PTR day$[rbp], 29
  0049e	7e 69		 jle	 SHORT $LN27@main

; 65   : 			cout << "\n    29 !" << endl;

  004a0	48 8d 15 00 00
	00 00		 lea	 rdx, OFFSET FLAT:??_C@_0CG@DOIHLELH@?6?B?5?b?h?q?n?j?n?q?m?n?l?5?t?e?b?p?$OA?k?e?5?r?n?k?$PM?j?n?529@
  004a7	48 8b 0d 00 00
	00 00		 mov	 rcx, QWORD PTR __imp_?cout@std@@3V?$basic_ostream@DU?$char_traits@D@std@@@1@A
  004ae	e8 00 00 00 00	 call	 ??$?6U?$char_traits@D@std@@@std@@YAAEAV?$basic_ostream@DU?$char_traits@D@std@@@0@AEAV10@PEBD@Z ; std::operator<<<std::char_traits<char> >
  004b3	48 8d 15 00 00
	00 00		 lea	 rdx, OFFSET FLAT:??$endl@DU?$char_traits@D@std@@@std@@YAAEAV?$basic_ostream@DU?$char_traits@D@std@@@0@AEAV10@@Z ; std::endl<char,std::char_traits<char> >
  004ba	48 8b c8	 mov	 rcx, rax
  004bd	ff 15 00 00 00
	00		 call	 QWORD PTR __imp_??6?$basic_ostream@DU?$char_traits@D@std@@@std@@QEAAAEAV01@P6AAEAV01@AEAV01@@Z@Z

; 66   : 			cin.clear();

  004c3	48 8b 05 00 00
	00 00		 mov	 rax, QWORD PTR __imp_?cin@std@@3V?$basic_istream@DU?$char_traits@D@std@@@1@A
  004ca	48 8b 00	 mov	 rax, QWORD PTR [rax]
  004cd	48 63 40 04	 movsxd	 rax, DWORD PTR [rax+4]
  004d1	48 8b 0d 00 00
	00 00		 mov	 rcx, QWORD PTR __imp_?cin@std@@3V?$basic_istream@DU?$char_traits@D@std@@@1@A
  004d8	48 03 c8	 add	 rcx, rax
  004db	48 8b c1	 mov	 rax, rcx
  004de	45 33 c0	 xor	 r8d, r8d
  004e1	33 d2		 xor	 edx, edx
  004e3	48 8b c8	 mov	 rcx, rax
  004e6	ff 15 00 00 00
	00		 call	 QWORD PTR __imp_?clear@?$basic_ios@DU?$char_traits@D@std@@@std@@QEAAXH_N@Z

; 67   : 			cin.ignore(1000000, '\n');

  004ec	41 b8 0a 00 00
	00		 mov	 r8d, 10
  004f2	ba 40 42 0f 00	 mov	 edx, 1000000		; 000f4240H
  004f7	48 8b 0d 00 00
	00 00		 mov	 rcx, QWORD PTR __imp_?cin@std@@3V?$basic_istream@DU?$char_traits@D@std@@@1@A
  004fe	ff 15 00 00 00
	00		 call	 QWORD PTR __imp_?ignore@?$basic_istream@DU?$char_traits@D@std@@@std@@QEAAAEAV12@_JH@Z

; 68   : 		}

  00504	e9 c2 00 00 00	 jmp	 $LN28@main
$LN27@main:

; 69   : 		else if (!leap_year_february && month == 2 && day > 28) {

  00509	0f b6 85 a4 00
	00 00		 movzx	 eax, BYTE PTR leap_year_february$[rbp]
  00510	85 c0		 test	 eax, eax
  00512	75 72		 jne	 SHORT $LN29@main
  00514	83 7d 24 02	 cmp	 DWORD PTR month$[rbp], 2
  00518	75 6c		 jne	 SHORT $LN29@main
  0051a	83 7d 04 1c	 cmp	 DWORD PTR day$[rbp], 28
  0051e	7e 66		 jle	 SHORT $LN29@main

; 70   : 			cout << "\n     28 !" << endl;

  00520	48 8d 15 00 00
	00 00		 lea	 rdx, OFFSET FLAT:??_C@_0CJ@CPPGOPJI@?6?B?5?m?e?5?b?h?q?n?j?n?q?m?n?l?5?t?e?b?p?$OA?k?e?5?r?n?k?$PM?j?n@
  00527	48 8b 0d 00 00
	00 00		 mov	 rcx, QWORD PTR __imp_?cout@std@@3V?$basic_ostream@DU?$char_traits@D@std@@@1@A
  0052e	e8 00 00 00 00	 call	 ??$?6U?$char_traits@D@std@@@std@@YAAEAV?$basic_ostream@DU?$char_traits@D@std@@@0@AEAV10@PEBD@Z ; std::operator<<<std::char_traits<char> >
  00533	48 8d 15 00 00
	00 00		 lea	 rdx, OFFSET FLAT:??$endl@DU?$char_traits@D@std@@@std@@YAAEAV?$basic_ostream@DU?$char_traits@D@std@@@0@AEAV10@@Z ; std::endl<char,std::char_traits<char> >
  0053a	48 8b c8	 mov	 rcx, rax
  0053d	ff 15 00 00 00
	00		 call	 QWORD PTR __imp_??6?$basic_ostream@DU?$char_traits@D@std@@@std@@QEAAAEAV01@P6AAEAV01@AEAV01@@Z@Z

; 71   : 			cin.clear();

  00543	48 8b 05 00 00
	00 00		 mov	 rax, QWORD PTR __imp_?cin@std@@3V?$basic_istream@DU?$char_traits@D@std@@@1@A
  0054a	48 8b 00	 mov	 rax, QWORD PTR [rax]
  0054d	48 63 40 04	 movsxd	 rax, DWORD PTR [rax+4]
  00551	48 8b 0d 00 00
	00 00		 mov	 rcx, QWORD PTR __imp_?cin@std@@3V?$basic_istream@DU?$char_traits@D@std@@@1@A
  00558	48 03 c8	 add	 rcx, rax
  0055b	48 8b c1	 mov	 rax, rcx
  0055e	45 33 c0	 xor	 r8d, r8d
  00561	33 d2		 xor	 edx, edx
  00563	48 8b c8	 mov	 rcx, rax
  00566	ff 15 00 00 00
	00		 call	 QWORD PTR __imp_?clear@?$basic_ios@DU?$char_traits@D@std@@@std@@QEAAXH_N@Z

; 72   : 			cin.ignore(1000000, '\n');

  0056c	41 b8 0a 00 00
	00		 mov	 r8d, 10
  00572	ba 40 42 0f 00	 mov	 edx, 1000000		; 000f4240H
  00577	48 8b 0d 00 00
	00 00		 mov	 rcx, QWORD PTR __imp_?cin@std@@3V?$basic_istream@DU?$char_traits@D@std@@@1@A
  0057e	ff 15 00 00 00
	00		 call	 QWORD PTR __imp_?ignore@?$basic_istream@DU?$char_traits@D@std@@@std@@QEAAAEAV12@_JH@Z

; 73   : 		}

  00584	eb 45		 jmp	 SHORT $LN30@main
$LN29@main:

; 74   : 		else if ((month == 4 || month == 6 || month == 9 || month == 11) && day > 30) {

  00586	83 7d 24 04	 cmp	 DWORD PTR month$[rbp], 4
  0058a	74 12		 je	 SHORT $LN33@main
  0058c	83 7d 24 06	 cmp	 DWORD PTR month$[rbp], 6
  00590	74 0c		 je	 SHORT $LN33@main
  00592	83 7d 24 09	 cmp	 DWORD PTR month$[rbp], 9
  00596	74 06		 je	 SHORT $LN33@main
  00598	83 7d 24 0b	 cmp	 DWORD PTR month$[rbp], 11
  0059c	75 2b		 jne	 SHORT $LN31@main
$LN33@main:
  0059e	83 7d 04 1e	 cmp	 DWORD PTR day$[rbp], 30
  005a2	7e 25		 jle	 SHORT $LN31@main

; 75   : 			cout << "\n    30 !" << endl;

  005a4	48 8d 15 00 00
	00 00		 lea	 rdx, OFFSET FLAT:??_C@_0BP@IJBLAODC@?6?B?5?$PN?r?n?l?5?l?e?q?$PP?v?e?5?r?n?k?$PM?j?n?530?5?d?m?e?i?$CB@
  005ab	48 8b 0d 00 00
	00 00		 mov	 rcx, QWORD PTR __imp_?cout@std@@3V?$basic_ostream@DU?$char_traits@D@std@@@1@A
  005b2	e8 00 00 00 00	 call	 ??$?6U?$char_traits@D@std@@@std@@YAAEAV?$basic_ostream@DU?$char_traits@D@std@@@0@AEAV10@PEBD@Z ; std::operator<<<std::char_traits<char> >
  005b7	48 8d 15 00 00
	00 00		 lea	 rdx, OFFSET FLAT:??$endl@DU?$char_traits@D@std@@@std@@YAAEAV?$basic_ostream@DU?$char_traits@D@std@@@0@AEAV10@@Z ; std::endl<char,std::char_traits<char> >
  005be	48 8b c8	 mov	 rcx, rax
  005c1	ff 15 00 00 00
	00		 call	 QWORD PTR __imp_??6?$basic_ostream@DU?$char_traits@D@std@@@std@@QEAAAEAV01@P6AAEAV01@AEAV01@@Z@Z

; 76   : 		}

  005c7	eb 02		 jmp	 SHORT $LN32@main
$LN31@main:

; 77   : 		else
; 78   : 			break;

  005c9	eb 05		 jmp	 SHORT $LN9@main
$LN32@main:
$LN30@main:
$LN28@main:
$LN25@main:
$LN23@main:
$LN21@main:

; 79   : 	}

  005cb	e9 f9 fc ff ff	 jmp	 $LN8@main
$LN9@main:

; 80   : 	cout << "\n    : " << number_of_day(day, month, year, leap_year_february) << endl;

  005d0	44 0f b6 8d a4
	00 00 00	 movzx	 r9d, BYTE PTR leap_year_february$[rbp]
  005d8	44 8b 45 44	 mov	 r8d, DWORD PTR year$[rbp]
  005dc	8b 55 24	 mov	 edx, DWORD PTR month$[rbp]
  005df	8b 4d 04	 mov	 ecx, DWORD PTR day$[rbp]
  005e2	e8 00 00 00 00	 call	 ?number_of_day@@YAHHHH_N@Z ; number_of_day
  005e7	89 85 94 01 00
	00		 mov	 DWORD PTR tv379[rbp], eax
  005ed	48 8d 15 00 00
	00 00		 lea	 rdx, OFFSET FLAT:??_C@_0BP@CPIJMAAJ@?6?O?n?p?$PP?d?j?n?b?$PL?i?5?m?n?l?e?p?5?d?m?$PP?5?b?5?c?n?d?s?3?5@
  005f4	48 8b 0d 00 00
	00 00		 mov	 rcx, QWORD PTR __imp_?cout@std@@3V?$basic_ostream@DU?$char_traits@D@std@@@1@A
  005fb	e8 00 00 00 00	 call	 ??$?6U?$char_traits@D@std@@@std@@YAAEAV?$basic_ostream@DU?$char_traits@D@std@@@0@AEAV10@PEBD@Z ; std::operator<<<std::char_traits<char> >
  00600	8b 8d 94 01 00
	00		 mov	 ecx, DWORD PTR tv379[rbp]
  00606	8b d1		 mov	 edx, ecx
  00608	48 8b c8	 mov	 rcx, rax
  0060b	ff 15 00 00 00
	00		 call	 QWORD PTR __imp_??6?$basic_ostream@DU?$char_traits@D@std@@@std@@QEAAAEAV01@H@Z
  00611	48 8d 15 00 00
	00 00		 lea	 rdx, OFFSET FLAT:??$endl@DU?$char_traits@D@std@@@std@@YAAEAV?$basic_ostream@DU?$char_traits@D@std@@@0@AEAV10@@Z ; std::endl<char,std::char_traits<char> >
  00618	48 8b c8	 mov	 rcx, rax
  0061b	ff 15 00 00 00
	00		 call	 QWORD PTR __imp_??6?$basic_ostream@DU?$char_traits@D@std@@@std@@QEAAAEAV01@P6AAEAV01@AEAV01@@Z@Z

; 81   : 	int day_number = number_of_day(day, month, year, leap_year_february);

  00621	44 0f b6 8d a4
	00 00 00	 movzx	 r9d, BYTE PTR leap_year_february$[rbp]
  00629	44 8b 45 44	 mov	 r8d, DWORD PTR year$[rbp]
  0062d	8b 55 24	 mov	 edx, DWORD PTR month$[rbp]
  00630	8b 4d 04	 mov	 ecx, DWORD PTR day$[rbp]
  00633	e8 00 00 00 00	 call	 ?number_of_day@@YAHHHH_N@Z ; number_of_day
  00638	89 85 c4 00 00
	00		 mov	 DWORD PTR day_number$[rbp], eax

; 82   : 	if (leap_year_february) {

  0063e	0f b6 85 a4 00
	00 00		 movzx	 eax, BYTE PTR leap_year_february$[rbp]
  00645	85 c0		 test	 eax, eax
  00647	74 15		 je	 SHORT $LN34@main

; 83   : 		day_number = my_birthday_leap_year - day_number;

  00649	8b 85 c4 00 00
	00		 mov	 eax, DWORD PTR day_number$[rbp]
  0064f	8b 4d 64	 mov	 ecx, DWORD PTR my_birthday_leap_year$[rbp]
  00652	2b c8		 sub	 ecx, eax
  00654	8b c1		 mov	 eax, ecx
  00656	89 85 c4 00 00
	00		 mov	 DWORD PTR day_number$[rbp], eax

; 84   : 	}

  0065c	eb 16		 jmp	 SHORT $LN35@main
$LN34@main:

; 85   : 	else {
; 86   : 		day_number = my_birthday_not_leap_year - day_number;

  0065e	8b 85 c4 00 00
	00		 mov	 eax, DWORD PTR day_number$[rbp]
  00664	8b 8d 84 00 00
	00		 mov	 ecx, DWORD PTR my_birthday_not_leap_year$[rbp]
  0066a	2b c8		 sub	 ecx, eax
  0066c	8b c1		 mov	 eax, ecx
  0066e	89 85 c4 00 00
	00		 mov	 DWORD PTR day_number$[rbp], eax
$LN35@main:

; 87   : 	}
; 88   : 	day_number = abs(day_number);

  00674	8b 8d c4 00 00
	00		 mov	 ecx, DWORD PTR day_number$[rbp]
  0067a	e8 00 00 00 00	 call	 abs
  0067f	89 85 c4 00 00
	00		 mov	 DWORD PTR day_number$[rbp], eax

; 89   : 	cout << "\n    : " << day_number << endl;

  00685	48 8d 15 00 00
	00 00		 lea	 rdx, OFFSET FLAT:??_C@_0BO@EFNFCODC@?6?D?m?e?i?5?d?n?5?l?n?e?c?n?5?d?m?$PP?5?p?n?f?d?e?m?h?$PP?3?5@
  0068c	48 8b 0d 00 00
	00 00		 mov	 rcx, QWORD PTR __imp_?cout@std@@3V?$basic_ostream@DU?$char_traits@D@std@@@1@A
  00693	e8 00 00 00 00	 call	 ??$?6U?$char_traits@D@std@@@std@@YAAEAV?$basic_ostream@DU?$char_traits@D@std@@@0@AEAV10@PEBD@Z ; std::operator<<<std::char_traits<char> >
  00698	8b 95 c4 00 00
	00		 mov	 edx, DWORD PTR day_number$[rbp]
  0069e	48 8b c8	 mov	 rcx, rax
  006a1	ff 15 00 00 00
	00		 call	 QWORD PTR __imp_??6?$basic_ostream@DU?$char_traits@D@std@@@std@@QEAAAEAV01@H@Z
  006a7	48 8d 15 00 00
	00 00		 lea	 rdx, OFFSET FLAT:??$endl@DU?$char_traits@D@std@@@std@@YAAEAV?$basic_ostream@DU?$char_traits@D@std@@@0@AEAV10@@Z ; std::endl<char,std::char_traits<char> >
  006ae	48 8b c8	 mov	 rcx, rax
  006b1	ff 15 00 00 00
	00		 call	 QWORD PTR __imp_??6?$basic_ostream@DU?$char_traits@D@std@@@std@@QEAAAEAV01@P6AAEAV01@AEAV01@@Z@Z

; 90   : 	programmers_day(leap_year_february, year);

  006b7	8b 55 44	 mov	 edx, DWORD PTR year$[rbp]
  006ba	0f b6 8d a4 00
	00 00		 movzx	 ecx, BYTE PTR leap_year_february$[rbp]
  006c1	e8 00 00 00 00	 call	 ?programmers_day@@YAX_NH@Z ; programmers_day

; 91   : }

  006c6	33 c0		 xor	 eax, eax
  006c8	8b f8		 mov	 edi, eax
  006ca	48 8d 4d e0	 lea	 rcx, QWORD PTR [rbp-32]
  006ce	48 8d 15 00 00
	00 00		 lea	 rdx, OFFSET FLAT:main$rtcFrameData
  006d5	e8 00 00 00 00	 call	 _RTC_CheckStackVars
  006da	8b c7		 mov	 eax, edi
  006dc	48 8b 8d 98 01
	00 00		 mov	 rcx, QWORD PTR __$ArrayPad$[rbp]
  006e3	48 33 cd	 xor	 rcx, rbp
  006e6	e8 00 00 00 00	 call	 __security_check_cookie
  006eb	48 8d a5 a8 01
	00 00		 lea	 rsp, QWORD PTR [rbp+424]
  006f2	5f		 pop	 rdi
  006f3	5d		 pop	 rbp
  006f4	c3		 ret	 0
main	ENDP
_TEXT	ENDS
; Function compile flags: /Odtp /RTCsu /ZI
; File D:\2 \\ 1\Laba1\Laba1.cpp
;	COMDAT ?programmers_day@@YAX_NH@Z
_TEXT	SEGMENT
leap_year_check$ = 224
year$ = 232
?programmers_day@@YAX_NH@Z PROC				; programmers_day, COMDAT

; 228  : void programmers_day(bool leap_year_check, int year) {

$LN5:
  00000	89 54 24 10	 mov	 DWORD PTR [rsp+16], edx
  00004	88 4c 24 08	 mov	 BYTE PTR [rsp+8], cl
  00008	55		 push	 rbp
  00009	57		 push	 rdi
  0000a	48 81 ec e8 00
	00 00		 sub	 rsp, 232		; 000000e8H
  00011	48 8d 6c 24 20	 lea	 rbp, QWORD PTR [rsp+32]
  00016	48 8d 0d 00 00
	00 00		 lea	 rcx, OFFSET FLAT:__7198BCB7_Laba1@cpp
  0001d	e8 00 00 00 00	 call	 __CheckForDebuggerJustMyCode

; 229  : 	if (leap_year_check) {

  00022	0f b6 85 e0 00
	00 00		 movzx	 eax, BYTE PTR leap_year_check$[rbp]
  00029	85 c0		 test	 eax, eax
  0002b	74 43		 je	 SHORT $LN2@programmer

; 230  : 		cout << "\n   " << year << "    12 ." << endl;

  0002d	48 8d 15 00 00
	00 00		 lea	 rdx, OFFSET FLAT:??_C@_0BG@HDBDFIDF@?6?D?e?m?$PM?5?o?p?n?c?p?$OA?l?l?h?q?r?$OA?5?b?5@
  00034	48 8b 0d 00 00
	00 00		 mov	 rcx, QWORD PTR __imp_?cout@std@@3V?$basic_ostream@DU?$char_traits@D@std@@@1@A
  0003b	e8 00 00 00 00	 call	 ??$?6U?$char_traits@D@std@@@std@@YAAEAV?$basic_ostream@DU?$char_traits@D@std@@@0@AEAV10@PEBD@Z ; std::operator<<<std::char_traits<char> >
  00040	8b 95 e8 00 00
	00		 mov	 edx, DWORD PTR year$[rbp]
  00046	48 8b c8	 mov	 rcx, rax
  00049	ff 15 00 00 00
	00		 call	 QWORD PTR __imp_??6?$basic_ostream@DU?$char_traits@D@std@@@std@@QEAAAEAV01@H@Z
  0004f	48 8d 15 00 00
	00 00		 lea	 rdx, OFFSET FLAT:??_C@_0CB@IDGJGAPL@?5?c?n?d?s?5?o?p?h?u?n?d?h?r?q?$PP?5?m?$OA?512?5?q?e?m?r?$PP?a?p?$PP@
  00056	48 8b c8	 mov	 rcx, rax
  00059	e8 00 00 00 00	 call	 ??$?6U?$char_traits@D@std@@@std@@YAAEAV?$basic_ostream@DU?$char_traits@D@std@@@0@AEAV10@PEBD@Z ; std::operator<<<std::char_traits<char> >
  0005e	48 8d 15 00 00
	00 00		 lea	 rdx, OFFSET FLAT:??$endl@DU?$char_traits@D@std@@@std@@YAAEAV?$basic_ostream@DU?$char_traits@D@std@@@0@AEAV10@@Z ; std::endl<char,std::char_traits<char> >
  00065	48 8b c8	 mov	 rcx, rax
  00068	ff 15 00 00 00
	00		 call	 QWORD PTR __imp_??6?$basic_ostream@DU?$char_traits@D@std@@@std@@QEAAAEAV01@P6AAEAV01@AEAV01@@Z@Z

; 231  : 	}

  0006e	eb 41		 jmp	 SHORT $LN3@programmer
$LN2@programmer:

; 232  : 	else {
; 233  : 		cout << "\n   " << year << "    13 ." << endl;

  00070	48 8d 15 00 00
	00 00		 lea	 rdx, OFFSET FLAT:??_C@_0BG@HDBDFIDF@?6?D?e?m?$PM?5?o?p?n?c?p?$OA?l?l?h?q?r?$OA?5?b?5@
  00077	48 8b 0d 00 00
	00 00		 mov	 rcx, QWORD PTR __imp_?cout@std@@3V?$basic_ostream@DU?$char_traits@D@std@@@1@A
  0007e	e8 00 00 00 00	 call	 ??$?6U?$char_traits@D@std@@@std@@YAAEAV?$basic_ostream@DU?$char_traits@D@std@@@0@AEAV10@PEBD@Z ; std::operator<<<std::char_traits<char> >
  00083	8b 95 e8 00 00
	00		 mov	 edx, DWORD PTR year$[rbp]
  00089	48 8b c8	 mov	 rcx, rax
  0008c	ff 15 00 00 00
	00		 call	 QWORD PTR __imp_??6?$basic_ostream@DU?$char_traits@D@std@@@std@@QEAAAEAV01@H@Z
  00092	48 8d 15 00 00
	00 00		 lea	 rdx, OFFSET FLAT:??_C@_0CB@BIMMCMJE@?5?c?n?d?s?5?o?p?h?u?n?d?h?r?q?$PP?5?m?$OA?513?5?q?e?m?r?$PP?a?p?$PP@
  00099	48 8b c8	 mov	 rcx, rax
  0009c	e8 00 00 00 00	 call	 ??$?6U?$char_traits@D@std@@@std@@YAAEAV?$basic_ostream@DU?$char_traits@D@std@@@0@AEAV10@PEBD@Z ; std::operator<<<std::char_traits<char> >
  000a1	48 8d 15 00 00
	00 00		 lea	 rdx, OFFSET FLAT:??$endl@DU?$char_traits@D@std@@@std@@YAAEAV?$basic_ostream@DU?$char_traits@D@std@@@0@AEAV10@@Z ; std::endl<char,std::char_traits<char> >
  000a8	48 8b c8	 mov	 rcx, rax
  000ab	ff 15 00 00 00
	00		 call	 QWORD PTR __imp_??6?$basic_ostream@DU?$char_traits@D@std@@@std@@QEAAAEAV01@P6AAEAV01@AEAV01@@Z@Z
$LN3@programmer:

; 234  : 	}
; 235  : }

  000b1	48 8d a5 c8 00
	00 00		 lea	 rsp, QWORD PTR [rbp+200]
  000b8	5f		 pop	 rdi
  000b9	5d		 pop	 rbp
  000ba	c3		 ret	 0
?programmers_day@@YAX_NH@Z ENDP				; programmers_day
_TEXT	ENDS
; Function compile flags: /Odtp /RTCsu /ZI
; File D:\2 \\ 1\Laba1\Laba1.cpp
;	COMDAT ?month_name@@YAXH@Z
_TEXT	SEGMENT
month$ = 224
?month_name@@YAXH@Z PROC				; month_name, COMDAT

; 189  : void month_name(int month) {

$LN26:
  00000	89 4c 24 08	 mov	 DWORD PTR [rsp+8], ecx
  00004	55		 push	 rbp
  00005	57		 push	 rdi
  00006	48 81 ec e8 00
	00 00		 sub	 rsp, 232		; 000000e8H
  0000d	48 8d 6c 24 20	 lea	 rbp, QWORD PTR [rsp+32]
  00012	48 8d 0d 00 00
	00 00		 lea	 rcx, OFFSET FLAT:__7198BCB7_Laba1@cpp
  00019	e8 00 00 00 00	 call	 __CheckForDebuggerJustMyCode

; 190  : 	if (month == 1) {

  0001e	83 bd e0 00 00
	00 01		 cmp	 DWORD PTR month$[rbp], 1
  00025	75 28		 jne	 SHORT $LN2@month_name

; 191  : 		cout << "\n" << endl;

  00027	48 8d 15 00 00
	00 00		 lea	 rdx, OFFSET FLAT:??_C@_07HFOKEPEI@?6?$NP?m?b?$OA?p?$PM@
  0002e	48 8b 0d 00 00
	00 00		 mov	 rcx, QWORD PTR __imp_?cout@std@@3V?$basic_ostream@DU?$char_traits@D@std@@@1@A
  00035	e8 00 00 00 00	 call	 ??$?6U?$char_traits@D@std@@@std@@YAAEAV?$basic_ostream@DU?$char_traits@D@std@@@0@AEAV10@PEBD@Z ; std::operator<<<std::char_traits<char> >
  0003a	48 8d 15 00 00
	00 00		 lea	 rdx, OFFSET FLAT:??$endl@DU?$char_traits@D@std@@@std@@YAAEAV?$basic_ostream@DU?$char_traits@D@std@@@0@AEAV10@@Z ; std::endl<char,std::char_traits<char> >
  00041	48 8b c8	 mov	 rcx, rax
  00044	ff 15 00 00 00
	00		 call	 QWORD PTR __imp_??6?$basic_ostream@DU?$char_traits@D@std@@@std@@QEAAAEAV01@P6AAEAV01@AEAV01@@Z@Z

; 192  : 	}

  0004a	e9 10 02 00 00	 jmp	 $LN3@month_name
$LN2@month_name:

; 193  : 	else if (month == 2) {

  0004f	83 bd e0 00 00
	00 02		 cmp	 DWORD PTR month$[rbp], 2
  00056	75 28		 jne	 SHORT $LN4@month_name

; 194  : 		cout << "\n" << endl;

  00058	48 8d 15 00 00
	00 00		 lea	 rdx, OFFSET FLAT:??_C@_08IHGOKKIF@?6?T?e?b?p?$OA?k?$PM@
  0005f	48 8b 0d 00 00
	00 00		 mov	 rcx, QWORD PTR __imp_?cout@std@@3V?$basic_ostream@DU?$char_traits@D@std@@@1@A
  00066	e8 00 00 00 00	 call	 ??$?6U?$char_traits@D@std@@@std@@YAAEAV?$basic_ostream@DU?$char_traits@D@std@@@0@AEAV10@PEBD@Z ; std::operator<<<std::char_traits<char> >
  0006b	48 8d 15 00 00
	00 00		 lea	 rdx, OFFSET FLAT:??$endl@DU?$char_traits@D@std@@@std@@YAAEAV?$basic_ostream@DU?$char_traits@D@std@@@0@AEAV10@@Z ; std::endl<char,std::char_traits<char> >
  00072	48 8b c8	 mov	 rcx, rax
  00075	ff 15 00 00 00
	00		 call	 QWORD PTR __imp_??6?$basic_ostream@DU?$char_traits@D@std@@@std@@QEAAAEAV01@P6AAEAV01@AEAV01@@Z@Z

; 195  : 	}

  0007b	e9 df 01 00 00	 jmp	 $LN5@month_name
$LN4@month_name:

; 196  : 	else if (month == 3) {

  00080	83 bd e0 00 00
	00 03		 cmp	 DWORD PTR month$[rbp], 3
  00087	75 28		 jne	 SHORT $LN6@month_name

; 197  : 		cout << "\n" << endl;

  00089	48 8d 15 00 00
	00 00		 lea	 rdx, OFFSET FLAT:??_C@_05IGHCMJDH@?6?L?$OA?p?r@
  00090	48 8b 0d 00 00
	00 00		 mov	 rcx, QWORD PTR __imp_?cout@std@@3V?$basic_ostream@DU?$char_traits@D@std@@@1@A
  00097	e8 00 00 00 00	 call	 ??$?6U?$char_traits@D@std@@@std@@YAAEAV?$basic_ostream@DU?$char_traits@D@std@@@0@AEAV10@PEBD@Z ; std::operator<<<std::char_traits<char> >
  0009c	48 8d 15 00 00
	00 00		 lea	 rdx, OFFSET FLAT:??$endl@DU?$char_traits@D@std@@@std@@YAAEAV?$basic_ostream@DU?$char_traits@D@std@@@0@AEAV10@@Z ; std::endl<char,std::char_traits<char> >
  000a3	48 8b c8	 mov	 rcx, rax
  000a6	ff 15 00 00 00
	00		 call	 QWORD PTR __imp_??6?$basic_ostream@DU?$char_traits@D@std@@@std@@QEAAAEAV01@P6AAEAV01@AEAV01@@Z@Z

; 198  : 	}

  000ac	e9 ae 01 00 00	 jmp	 $LN7@month_name
$LN6@month_name:

; 199  : 	else if (month == 4) {

  000b1	83 bd e0 00 00
	00 04		 cmp	 DWORD PTR month$[rbp], 4
  000b8	75 28		 jne	 SHORT $LN8@month_name

; 200  : 		cout << "\n" << endl;

  000ba	48 8d 15 00 00
	00 00		 lea	 rdx, OFFSET FLAT:??_C@_07JEDJHKCF@?6?$MA?o?p?e?k?$PM@
  000c1	48 8b 0d 00 00
	00 00		 mov	 rcx, QWORD PTR __imp_?cout@std@@3V?$basic_ostream@DU?$char_traits@D@std@@@1@A
  000c8	e8 00 00 00 00	 call	 ??$?6U?$char_traits@D@std@@@std@@YAAEAV?$basic_ostream@DU?$char_traits@D@std@@@0@AEAV10@PEBD@Z ; std::operator<<<std::char_traits<char> >
  000cd	48 8d 15 00 00
	00 00		 lea	 rdx, OFFSET FLAT:??$endl@DU?$char_traits@D@std@@@std@@YAAEAV?$basic_ostream@DU?$char_traits@D@std@@@0@AEAV10@@Z ; std::endl<char,std::char_traits<char> >
  000d4	48 8b c8	 mov	 rcx, rax
  000d7	ff 15 00 00 00
	00		 call	 QWORD PTR __imp_??6?$basic_ostream@DU?$char_traits@D@std@@@std@@QEAAAEAV01@P6AAEAV01@AEAV01@@Z@Z

; 201  : 	}

  000dd	e9 7d 01 00 00	 jmp	 $LN9@month_name
$LN8@month_name:

; 202  : 	else if (month == 5) {

  000e2	83 bd e0 00 00
	00 05		 cmp	 DWORD PTR month$[rbp], 5
  000e9	75 28		 jne	 SHORT $LN10@month_name

; 203  : 		cout << "\n" << endl;

  000eb	48 8d 15 00 00
	00 00		 lea	 rdx, OFFSET FLAT:??_C@_04GJKINJPI@?6?L?$OA?i@
  000f2	48 8b 0d 00 00
	00 00		 mov	 rcx, QWORD PTR __imp_?cout@std@@3V?$basic_ostream@DU?$char_traits@D@std@@@1@A
  000f9	e8 00 00 00 00	 call	 ??$?6U?$char_traits@D@std@@@std@@YAAEAV?$basic_ostream@DU?$char_traits@D@std@@@0@AEAV10@PEBD@Z ; std::operator<<<std::char_traits<char> >
  000fe	48 8d 15 00 00
	00 00		 lea	 rdx, OFFSET FLAT:??$endl@DU?$char_traits@D@std@@@std@@YAAEAV?$basic_ostream@DU?$char_traits@D@std@@@0@AEAV10@@Z ; std::endl<char,std::char_traits<char> >
  00105	48 8b c8	 mov	 rcx, rax
  00108	ff 15 00 00 00
	00		 call	 QWORD PTR __imp_??6?$basic_ostream@DU?$char_traits@D@std@@@std@@QEAAAEAV01@P6AAEAV01@AEAV01@@Z@Z

; 204  : 	}

  0010e	e9 4c 01 00 00	 jmp	 $LN11@month_name
$LN10@month_name:

; 205  : 	else if (month == 6) {

  00113	83 bd e0 00 00
	00 06		 cmp	 DWORD PTR month$[rbp], 6
  0011a	75 28		 jne	 SHORT $LN12@month_name

; 206  : 		cout << "\n" << endl;

  0011c	48 8d 15 00 00
	00 00		 lea	 rdx, OFFSET FLAT:??_C@_05EJEJFCPG@?6?H?$PO?m?$PM@
  00123	48 8b 0d 00 00
	00 00		 mov	 rcx, QWORD PTR __imp_?cout@std@@3V?$basic_ostream@DU?$char_traits@D@std@@@1@A
  0012a	e8 00 00 00 00	 call	 ??$?6U?$char_traits@D@std@@@std@@YAAEAV?$basic_ostream@DU?$char_traits@D@std@@@0@AEAV10@PEBD@Z ; std::operator<<<std::char_traits<char> >
  0012f	48 8d 15 00 00
	00 00		 lea	 rdx, OFFSET FLAT:??$endl@DU?$char_traits@D@std@@@std@@YAAEAV?$basic_ostream@DU?$char_traits@D@std@@@0@AEAV10@@Z ; std::endl<char,std::char_traits<char> >
  00136	48 8b c8	 mov	 rcx, rax
  00139	ff 15 00 00 00
	00		 call	 QWORD PTR __imp_??6?$basic_ostream@DU?$char_traits@D@std@@@std@@QEAAAEAV01@P6AAEAV01@AEAV01@@Z@Z

; 207  : 	}

  0013f	e9 1b 01 00 00	 jmp	 $LN13@month_name
$LN12@month_name:

; 208  : 	else if (month == 7) {

  00144	83 bd e0 00 00
	00 07		 cmp	 DWORD PTR month$[rbp], 7
  0014b	75 28		 jne	 SHORT $LN14@month_name

; 209  : 		cout << "\n" << endl;

  0014d	48 8d 15 00 00
	00 00		 lea	 rdx, OFFSET FLAT:??_C@_05ENMECOEE@?6?H?$PO?k?$PM@
  00154	48 8b 0d 00 00
	00 00		 mov	 rcx, QWORD PTR __imp_?cout@std@@3V?$basic_ostream@DU?$char_traits@D@std@@@1@A
  0015b	e8 00 00 00 00	 call	 ??$?6U?$char_traits@D@std@@@std@@YAAEAV?$basic_ostream@DU?$char_traits@D@std@@@0@AEAV10@PEBD@Z ; std::operator<<<std::char_traits<char> >
  00160	48 8d 15 00 00
	00 00		 lea	 rdx, OFFSET FLAT:??$endl@DU?$char_traits@D@std@@@std@@YAAEAV?$basic_ostream@DU?$char_traits@D@std@@@0@AEAV10@@Z ; std::endl<char,std::char_traits<char> >
  00167	48 8b c8	 mov	 rcx, rax
  0016a	ff 15 00 00 00
	00		 call	 QWORD PTR __imp_??6?$basic_ostream@DU?$char_traits@D@std@@@std@@QEAAAEAV01@P6AAEAV01@AEAV01@@Z@Z

; 210  : 	}

  00170	e9 ea 00 00 00	 jmp	 $LN15@month_name
$LN14@month_name:

; 211  : 	else if (month == 8) {

  00175	83 bd e0 00 00
	00 08		 cmp	 DWORD PTR month$[rbp], 8
  0017c	75 28		 jne	 SHORT $LN16@month_name

; 212  : 		cout << "\n" << endl;

  0017e	48 8d 15 00 00
	00 00		 lea	 rdx, OFFSET FLAT:??_C@_07PFKHIHMC@?6?$MA?b?c?s?q?r@
  00185	48 8b 0d 00 00
	00 00		 mov	 rcx, QWORD PTR __imp_?cout@std@@3V?$basic_ostream@DU?$char_traits@D@std@@@1@A
  0018c	e8 00 00 00 00	 call	 ??$?6U?$char_traits@D@std@@@std@@YAAEAV?$basic_ostream@DU?$char_traits@D@std@@@0@AEAV10@PEBD@Z ; std::operator<<<std::char_traits<char> >
  00191	48 8d 15 00 00
	00 00		 lea	 rdx, OFFSET FLAT:??$endl@DU?$char_traits@D@std@@@std@@YAAEAV?$basic_ostream@DU?$char_traits@D@std@@@0@AEAV10@@Z ; std::endl<char,std::char_traits<char> >
  00198	48 8b c8	 mov	 rcx, rax
  0019b	ff 15 00 00 00
	00		 call	 QWORD PTR __imp_??6?$basic_ostream@DU?$char_traits@D@std@@@std@@QEAAAEAV01@P6AAEAV01@AEAV01@@Z@Z

; 213  : 	}

  001a1	e9 b9 00 00 00	 jmp	 $LN17@month_name
$LN16@month_name:

; 214  : 	else if (month == 9) {

  001a6	83 bd e0 00 00
	00 09		 cmp	 DWORD PTR month$[rbp], 9
  001ad	75 28		 jne	 SHORT $LN18@month_name

; 215  : 		cout << "\n" << endl;

  001af	48 8d 15 00 00
	00 00		 lea	 rdx, OFFSET FLAT:??_C@_09FAFMDKEK@?6?Q?e?m?r?$PP?a?p?$PM@
  001b6	48 8b 0d 00 00
	00 00		 mov	 rcx, QWORD PTR __imp_?cout@std@@3V?$basic_ostream@DU?$char_traits@D@std@@@1@A
  001bd	e8 00 00 00 00	 call	 ??$?6U?$char_traits@D@std@@@std@@YAAEAV?$basic_ostream@DU?$char_traits@D@std@@@0@AEAV10@PEBD@Z ; std::operator<<<std::char_traits<char> >
  001c2	48 8d 15 00 00
	00 00		 lea	 rdx, OFFSET FLAT:??$endl@DU?$char_traits@D@std@@@std@@YAAEAV?$basic_ostream@DU?$char_traits@D@std@@@0@AEAV10@@Z ; std::endl<char,std::char_traits<char> >
  001c9	48 8b c8	 mov	 rcx, rax
  001cc	ff 15 00 00 00
	00		 call	 QWORD PTR __imp_??6?$basic_ostream@DU?$char_traits@D@std@@@std@@QEAAAEAV01@P6AAEAV01@AEAV01@@Z@Z

; 216  : 	}

  001d2	e9 88 00 00 00	 jmp	 $LN19@month_name
$LN18@month_name:

; 217  : 	else if (month == 10) {

  001d7	83 bd e0 00 00
	00 0a		 cmp	 DWORD PTR month$[rbp], 10
  001de	75 25		 jne	 SHORT $LN20@month_name

; 218  : 		cout << "\n" << endl;

  001e0	48 8d 15 00 00
	00 00		 lea	 rdx, OFFSET FLAT:??_C@_08LFBEEJDB@?6?N?j?r?$PP?a?p?$PM@
  001e7	48 8b 0d 00 00
	00 00		 mov	 rcx, QWORD PTR __imp_?cout@std@@3V?$basic_ostream@DU?$char_traits@D@std@@@1@A
  001ee	e8 00 00 00 00	 call	 ??$?6U?$char_traits@D@std@@@std@@YAAEAV?$basic_ostream@DU?$char_traits@D@std@@@0@AEAV10@PEBD@Z ; std::operator<<<std::char_traits<char> >
  001f3	48 8d 15 00 00
	00 00		 lea	 rdx, OFFSET FLAT:??$endl@DU?$char_traits@D@std@@@std@@YAAEAV?$basic_ostream@DU?$char_traits@D@std@@@0@AEAV10@@Z ; std::endl<char,std::char_traits<char> >
  001fa	48 8b c8	 mov	 rcx, rax
  001fd	ff 15 00 00 00
	00		 call	 QWORD PTR __imp_??6?$basic_ostream@DU?$char_traits@D@std@@@std@@QEAAAEAV01@P6AAEAV01@AEAV01@@Z@Z

; 219  : 	}

  00203	eb 5a		 jmp	 SHORT $LN21@month_name
$LN20@month_name:

; 220  : 	else if (month == 11) {

  00205	83 bd e0 00 00
	00 0b		 cmp	 DWORD PTR month$[rbp], 11
  0020c	75 25		 jne	 SHORT $LN22@month_name

; 221  : 		cout << "\n" << endl;

  0020e	48 8d 15 00 00
	00 00		 lea	 rdx, OFFSET FLAT:??_C@_07CDPDIEFH@?6?M?n?$PP?a?p?$PM@
  00215	48 8b 0d 00 00
	00 00		 mov	 rcx, QWORD PTR __imp_?cout@std@@3V?$basic_ostream@DU?$char_traits@D@std@@@1@A
  0021c	e8 00 00 00 00	 call	 ??$?6U?$char_traits@D@std@@@std@@YAAEAV?$basic_ostream@DU?$char_traits@D@std@@@0@AEAV10@PEBD@Z ; std::operator<<<std::char_traits<char> >
  00221	48 8d 15 00 00
	00 00		 lea	 rdx, OFFSET FLAT:??$endl@DU?$char_traits@D@std@@@std@@YAAEAV?$basic_ostream@DU?$char_traits@D@std@@@0@AEAV10@@Z ; std::endl<char,std::char_traits<char> >
  00228	48 8b c8	 mov	 rcx, rax
  0022b	ff 15 00 00 00
	00		 call	 QWORD PTR __imp_??6?$basic_ostream@DU?$char_traits@D@std@@@std@@QEAAAEAV01@P6AAEAV01@AEAV01@@Z@Z

; 222  : 	}

  00231	eb 2c		 jmp	 SHORT $LN23@month_name
$LN22@month_name:

; 223  : 	else if (month == 12) {

  00233	83 bd e0 00 00
	00 0c		 cmp	 DWORD PTR month$[rbp], 12
  0023a	75 23		 jne	 SHORT $LN24@month_name

; 224  : 		cout << "\n" << endl;

  0023c	48 8d 15 00 00
	00 00		 lea	 rdx, OFFSET FLAT:??_C@_08NPKJKFLF@?6?D?e?j?$OA?a?p?$PM@
  00243	48 8b 0d 00 00
	00 00		 mov	 rcx, QWORD PTR __imp_?cout@std@@3V?$basic_ostream@DU?$char_traits@D@std@@@1@A
  0024a	e8 00 00 00 00	 call	 ??$?6U?$char_traits@D@std@@@std@@YAAEAV?$basic_ostream@DU?$char_traits@D@std@@@0@AEAV10@PEBD@Z ; std::operator<<<std::char_traits<char> >
  0024f	48 8d 15 00 00
	00 00		 lea	 rdx, OFFSET FLAT:??$endl@DU?$char_traits@D@std@@@std@@YAAEAV?$basic_ostream@DU?$char_traits@D@std@@@0@AEAV10@@Z ; std::endl<char,std::char_traits<char> >
  00256	48 8b c8	 mov	 rcx, rax
  00259	ff 15 00 00 00
	00		 call	 QWORD PTR __imp_??6?$basic_ostream@DU?$char_traits@D@std@@@std@@QEAAAEAV01@P6AAEAV01@AEAV01@@Z@Z
$LN24@month_name:
$LN23@month_name:
$LN21@month_name:
$LN19@month_name:
$LN17@month_name:
$LN15@month_name:
$LN13@month_name:
$LN11@month_name:
$LN9@month_name:
$LN7@month_name:
$LN5@month_name:
$LN3@month_name:

; 225  : 	}
; 226  : }

  0025f	48 8d a5 c8 00
	00 00		 lea	 rsp, QWORD PTR [rbp+200]
  00266	5f		 pop	 rdi
  00267	5d		 pop	 rbp
  00268	c3		 ret	 0
?month_name@@YAXH@Z ENDP				; month_name
_TEXT	ENDS
; Function compile flags: /Odtp /RTCsu /ZI
; File D:\2 \\ 1\Laba1\Laba1.cpp
;	COMDAT ?number_of_day@@YAHHHH_N@Z
_TEXT	SEGMENT
day$ = 224
month$ = 232
year$ = 240
leap_year_check$ = 248
?number_of_day@@YAHHHH_N@Z PROC				; number_of_day, COMDAT

; 120  : int number_of_day(int day, int month, int year, bool leap_year_check)	{

$LN25:
  00000	44 88 4c 24 20	 mov	 BYTE PTR [rsp+32], r9b
  00005	44 89 44 24 18	 mov	 DWORD PTR [rsp+24], r8d
  0000a	89 54 24 10	 mov	 DWORD PTR [rsp+16], edx
  0000e	89 4c 24 08	 mov	 DWORD PTR [rsp+8], ecx
  00012	55		 push	 rbp
  00013	57		 push	 rdi
  00014	48 81 ec e8 00
	00 00		 sub	 rsp, 232		; 000000e8H
  0001b	48 8d 6c 24 20	 lea	 rbp, QWORD PTR [rsp+32]
  00020	48 8d 0d 00 00
	00 00		 lea	 rcx, OFFSET FLAT:__7198BCB7_Laba1@cpp
  00027	e8 00 00 00 00	 call	 __CheckForDebuggerJustMyCode

; 121  : 	if (month == 1) {

  0002c	83 bd e8 00 00
	00 01		 cmp	 DWORD PTR month$[rbp], 1
  00033	75 0b		 jne	 SHORT $LN2@number_of_

; 122  : 		return day;

  00035	8b 85 e0 00 00
	00		 mov	 eax, DWORD PTR day$[rbp]
  0003b	e9 cd 02 00 00	 jmp	 $LN1@number_of_
$LN2@number_of_:

; 123  : 	}
; 124  : 	if (month == 2) {

  00040	83 bd e8 00 00
	00 02		 cmp	 DWORD PTR month$[rbp], 2
  00047	75 0e		 jne	 SHORT $LN3@number_of_

; 125  : 		return day + 31;

  00049	8b 85 e0 00 00
	00		 mov	 eax, DWORD PTR day$[rbp]
  0004f	83 c0 1f	 add	 eax, 31
  00052	e9 b6 02 00 00	 jmp	 $LN1@number_of_
$LN3@number_of_:

; 126  : 	}
; 127  : 	if (month == 3 && leap_year_check) {

  00057	83 bd e8 00 00
	00 03		 cmp	 DWORD PTR month$[rbp], 3
  0005e	75 19		 jne	 SHORT $LN4@number_of_
  00060	0f b6 85 f8 00
	00 00		 movzx	 eax, BYTE PTR leap_year_check$[rbp]
  00067	85 c0		 test	 eax, eax
  00069	74 0e		 je	 SHORT $LN4@number_of_

; 128  : 		return day + 60;

  0006b	8b 85 e0 00 00
	00		 mov	 eax, DWORD PTR day$[rbp]
  00071	83 c0 3c	 add	 eax, 60			; 0000003cH
  00074	e9 94 02 00 00	 jmp	 $LN1@number_of_
$LN4@number_of_:

; 129  : 	}
; 130  : 	if (month == 3 && !leap_year_check) {

  00079	83 bd e8 00 00
	00 03		 cmp	 DWORD PTR month$[rbp], 3
  00080	75 19		 jne	 SHORT $LN5@number_of_
  00082	0f b6 85 f8 00
	00 00		 movzx	 eax, BYTE PTR leap_year_check$[rbp]
  00089	85 c0		 test	 eax, eax
  0008b	75 0e		 jne	 SHORT $LN5@number_of_

; 131  : 		return day + 59;

  0008d	8b 85 e0 00 00
	00		 mov	 eax, DWORD PTR day$[rbp]
  00093	83 c0 3b	 add	 eax, 59			; 0000003bH
  00096	e9 72 02 00 00	 jmp	 $LN1@number_of_
$LN5@number_of_:

; 132  : 	}
; 133  : 	if (month == 4 && leap_year_check) {

  0009b	83 bd e8 00 00
	00 04		 cmp	 DWORD PTR month$[rbp], 4
  000a2	75 19		 jne	 SHORT $LN6@number_of_
  000a4	0f b6 85 f8 00
	00 00		 movzx	 eax, BYTE PTR leap_year_check$[rbp]
  000ab	85 c0		 test	 eax, eax
  000ad	74 0e		 je	 SHORT $LN6@number_of_

; 134  : 		return day + 91;

  000af	8b 85 e0 00 00
	00		 mov	 eax, DWORD PTR day$[rbp]
  000b5	83 c0 5b	 add	 eax, 91			; 0000005bH
  000b8	e9 50 02 00 00	 jmp	 $LN1@number_of_
$LN6@number_of_:

; 135  : 	}
; 136  : 	if (month == 4 && !leap_year_check) {

  000bd	83 bd e8 00 00
	00 04		 cmp	 DWORD PTR month$[rbp], 4
  000c4	75 19		 jne	 SHORT $LN7@number_of_
  000c6	0f b6 85 f8 00
	00 00		 movzx	 eax, BYTE PTR leap_year_check$[rbp]
  000cd	85 c0		 test	 eax, eax
  000cf	75 0e		 jne	 SHORT $LN7@number_of_

; 137  : 		return day + 90;

  000d1	8b 85 e0 00 00
	00		 mov	 eax, DWORD PTR day$[rbp]
  000d7	83 c0 5a	 add	 eax, 90			; 0000005aH
  000da	e9 2e 02 00 00	 jmp	 $LN1@number_of_
$LN7@number_of_:

; 138  : 	}
; 139  : 	if (month == 5 && leap_year_check) {

  000df	83 bd e8 00 00
	00 05		 cmp	 DWORD PTR month$[rbp], 5
  000e6	75 19		 jne	 SHORT $LN8@number_of_
  000e8	0f b6 85 f8 00
	00 00		 movzx	 eax, BYTE PTR leap_year_check$[rbp]
  000ef	85 c0		 test	 eax, eax
  000f1	74 0e		 je	 SHORT $LN8@number_of_

; 140  : 		return day + 121;

  000f3	8b 85 e0 00 00
	00		 mov	 eax, DWORD PTR day$[rbp]
  000f9	83 c0 79	 add	 eax, 121		; 00000079H
  000fc	e9 0c 02 00 00	 jmp	 $LN1@number_of_
$LN8@number_of_:

; 141  : 	}
; 142  : 	if (month == 5 && !leap_year_check) {

  00101	83 bd e8 00 00
	00 05		 cmp	 DWORD PTR month$[rbp], 5
  00108	75 19		 jne	 SHORT $LN9@number_of_
  0010a	0f b6 85 f8 00
	00 00		 movzx	 eax, BYTE PTR leap_year_check$[rbp]
  00111	85 c0		 test	 eax, eax
  00113	75 0e		 jne	 SHORT $LN9@number_of_

; 143  : 		return day + 120;

  00115	8b 85 e0 00 00
	00		 mov	 eax, DWORD PTR day$[rbp]
  0011b	83 c0 78	 add	 eax, 120		; 00000078H
  0011e	e9 ea 01 00 00	 jmp	 $LN1@number_of_
$LN9@number_of_:

; 144  : 	}
; 145  : 	if (month == 6 && leap_year_check) {

  00123	83 bd e8 00 00
	00 06		 cmp	 DWORD PTR month$[rbp], 6
  0012a	75 1b		 jne	 SHORT $LN10@number_of_
  0012c	0f b6 85 f8 00
	00 00		 movzx	 eax, BYTE PTR leap_year_check$[rbp]
  00133	85 c0		 test	 eax, eax
  00135	74 10		 je	 SHORT $LN10@number_of_

; 146  : 		return day + 152;

  00137	8b 85 e0 00 00
	00		 mov	 eax, DWORD PTR day$[rbp]
  0013d	05 98 00 00 00	 add	 eax, 152		; 00000098H
  00142	e9 c6 01 00 00	 jmp	 $LN1@number_of_
$LN10@number_of_:

; 147  : 	}
; 148  : 	if (month == 6 && !leap_year_check) {

  00147	83 bd e8 00 00
	00 06		 cmp	 DWORD PTR month$[rbp], 6
  0014e	75 1b		 jne	 SHORT $LN11@number_of_
  00150	0f b6 85 f8 00
	00 00		 movzx	 eax, BYTE PTR leap_year_check$[rbp]
  00157	85 c0		 test	 eax, eax
  00159	75 10		 jne	 SHORT $LN11@number_of_

; 149  : 		return day + 151;

  0015b	8b 85 e0 00 00
	00		 mov	 eax, DWORD PTR day$[rbp]
  00161	05 97 00 00 00	 add	 eax, 151		; 00000097H
  00166	e9 a2 01 00 00	 jmp	 $LN1@number_of_
$LN11@number_of_:

; 150  : 	}
; 151  : 	if (month == 7 && leap_year_check) {

  0016b	83 bd e8 00 00
	00 07		 cmp	 DWORD PTR month$[rbp], 7
  00172	75 1b		 jne	 SHORT $LN12@number_of_
  00174	0f b6 85 f8 00
	00 00		 movzx	 eax, BYTE PTR leap_year_check$[rbp]
  0017b	85 c0		 test	 eax, eax
  0017d	74 10		 je	 SHORT $LN12@number_of_

; 152  : 		return day + 182;

  0017f	8b 85 e0 00 00
	00		 mov	 eax, DWORD PTR day$[rbp]
  00185	05 b6 00 00 00	 add	 eax, 182		; 000000b6H
  0018a	e9 7e 01 00 00	 jmp	 $LN1@number_of_
$LN12@number_of_:

; 153  : 	}
; 154  : 	if (month == 7 && !leap_year_check) {

  0018f	83 bd e8 00 00
	00 07		 cmp	 DWORD PTR month$[rbp], 7
  00196	75 1b		 jne	 SHORT $LN13@number_of_
  00198	0f b6 85 f8 00
	00 00		 movzx	 eax, BYTE PTR leap_year_check$[rbp]
  0019f	85 c0		 test	 eax, eax
  001a1	75 10		 jne	 SHORT $LN13@number_of_

; 155  : 		return day + 181;

  001a3	8b 85 e0 00 00
	00		 mov	 eax, DWORD PTR day$[rbp]
  001a9	05 b5 00 00 00	 add	 eax, 181		; 000000b5H
  001ae	e9 5a 01 00 00	 jmp	 $LN1@number_of_
$LN13@number_of_:

; 156  : 	}
; 157  : 	if (month == 8 && leap_year_check) {

  001b3	83 bd e8 00 00
	00 08		 cmp	 DWORD PTR month$[rbp], 8
  001ba	75 1b		 jne	 SHORT $LN14@number_of_
  001bc	0f b6 85 f8 00
	00 00		 movzx	 eax, BYTE PTR leap_year_check$[rbp]
  001c3	85 c0		 test	 eax, eax
  001c5	74 10		 je	 SHORT $LN14@number_of_

; 158  : 		return day + 213;

  001c7	8b 85 e0 00 00
	00		 mov	 eax, DWORD PTR day$[rbp]
  001cd	05 d5 00 00 00	 add	 eax, 213		; 000000d5H
  001d2	e9 36 01 00 00	 jmp	 $LN1@number_of_
$LN14@number_of_:

; 159  : 	}
; 160  : 	if (month == 8 && !leap_year_check) {

  001d7	83 bd e8 00 00
	00 08		 cmp	 DWORD PTR month$[rbp], 8
  001de	75 1b		 jne	 SHORT $LN15@number_of_
  001e0	0f b6 85 f8 00
	00 00		 movzx	 eax, BYTE PTR leap_year_check$[rbp]
  001e7	85 c0		 test	 eax, eax
  001e9	75 10		 jne	 SHORT $LN15@number_of_

; 161  : 		return day + 212;

  001eb	8b 85 e0 00 00
	00		 mov	 eax, DWORD PTR day$[rbp]
  001f1	05 d4 00 00 00	 add	 eax, 212		; 000000d4H
  001f6	e9 12 01 00 00	 jmp	 $LN1@number_of_
$LN15@number_of_:

; 162  : 	}
; 163  : 	if (month == 9 && leap_year_check) {

  001fb	83 bd e8 00 00
	00 09		 cmp	 DWORD PTR month$[rbp], 9
  00202	75 1b		 jne	 SHORT $LN16@number_of_
  00204	0f b6 85 f8 00
	00 00		 movzx	 eax, BYTE PTR leap_year_check$[rbp]
  0020b	85 c0		 test	 eax, eax
  0020d	74 10		 je	 SHORT $LN16@number_of_

; 164  : 		return day + 244;

  0020f	8b 85 e0 00 00
	00		 mov	 eax, DWORD PTR day$[rbp]
  00215	05 f4 00 00 00	 add	 eax, 244		; 000000f4H
  0021a	e9 ee 00 00 00	 jmp	 $LN1@number_of_
$LN16@number_of_:

; 165  : 	}
; 166  : 	if (month == 9 && !leap_year_check) {

  0021f	83 bd e8 00 00
	00 09		 cmp	 DWORD PTR month$[rbp], 9
  00226	75 1b		 jne	 SHORT $LN17@number_of_
  00228	0f b6 85 f8 00
	00 00		 movzx	 eax, BYTE PTR leap_year_check$[rbp]
  0022f	85 c0		 test	 eax, eax
  00231	75 10		 jne	 SHORT $LN17@number_of_

; 167  : 		return day + 243;

  00233	8b 85 e0 00 00
	00		 mov	 eax, DWORD PTR day$[rbp]
  00239	05 f3 00 00 00	 add	 eax, 243		; 000000f3H
  0023e	e9 ca 00 00 00	 jmp	 $LN1@number_of_
$LN17@number_of_:

; 168  : 	}
; 169  : 	if (month == 10 && leap_year_check) {

  00243	83 bd e8 00 00
	00 0a		 cmp	 DWORD PTR month$[rbp], 10
  0024a	75 1b		 jne	 SHORT $LN18@number_of_
  0024c	0f b6 85 f8 00
	00 00		 movzx	 eax, BYTE PTR leap_year_check$[rbp]
  00253	85 c0		 test	 eax, eax
  00255	74 10		 je	 SHORT $LN18@number_of_

; 170  : 		return day + 274;

  00257	8b 85 e0 00 00
	00		 mov	 eax, DWORD PTR day$[rbp]
  0025d	05 12 01 00 00	 add	 eax, 274		; 00000112H
  00262	e9 a6 00 00 00	 jmp	 $LN1@number_of_
$LN18@number_of_:

; 171  : 	}
; 172  : 	if (month == 10 && !leap_year_check) {

  00267	83 bd e8 00 00
	00 0a		 cmp	 DWORD PTR month$[rbp], 10
  0026e	75 1b		 jne	 SHORT $LN19@number_of_
  00270	0f b6 85 f8 00
	00 00		 movzx	 eax, BYTE PTR leap_year_check$[rbp]
  00277	85 c0		 test	 eax, eax
  00279	75 10		 jne	 SHORT $LN19@number_of_

; 173  : 		return day + 273;

  0027b	8b 85 e0 00 00
	00		 mov	 eax, DWORD PTR day$[rbp]
  00281	05 11 01 00 00	 add	 eax, 273		; 00000111H
  00286	e9 82 00 00 00	 jmp	 $LN1@number_of_
$LN19@number_of_:

; 174  : 	}
; 175  : 	if (month == 11 && leap_year_check) {

  0028b	83 bd e8 00 00
	00 0b		 cmp	 DWORD PTR month$[rbp], 11
  00292	75 18		 jne	 SHORT $LN20@number_of_
  00294	0f b6 85 f8 00
	00 00		 movzx	 eax, BYTE PTR leap_year_check$[rbp]
  0029b	85 c0		 test	 eax, eax
  0029d	74 0d		 je	 SHORT $LN20@number_of_

; 176  : 		return day + 305;

  0029f	8b 85 e0 00 00
	00		 mov	 eax, DWORD PTR day$[rbp]
  002a5	05 31 01 00 00	 add	 eax, 305		; 00000131H
  002aa	eb 61		 jmp	 SHORT $LN1@number_of_
$LN20@number_of_:

; 177  : 	}
; 178  : 	if (month == 11 && !leap_year_check) {

  002ac	83 bd e8 00 00
	00 0b		 cmp	 DWORD PTR month$[rbp], 11
  002b3	75 18		 jne	 SHORT $LN21@number_of_
  002b5	0f b6 85 f8 00
	00 00		 movzx	 eax, BYTE PTR leap_year_check$[rbp]
  002bc	85 c0		 test	 eax, eax
  002be	75 0d		 jne	 SHORT $LN21@number_of_

; 179  : 		return day + 304;

  002c0	8b 85 e0 00 00
	00		 mov	 eax, DWORD PTR day$[rbp]
  002c6	05 30 01 00 00	 add	 eax, 304		; 00000130H
  002cb	eb 40		 jmp	 SHORT $LN1@number_of_
$LN21@number_of_:

; 180  : 	}
; 181  : 	if (month == 12 && leap_year_check) {

  002cd	83 bd e8 00 00
	00 0c		 cmp	 DWORD PTR month$[rbp], 12
  002d4	75 18		 jne	 SHORT $LN22@number_of_
  002d6	0f b6 85 f8 00
	00 00		 movzx	 eax, BYTE PTR leap_year_check$[rbp]
  002dd	85 c0		 test	 eax, eax
  002df	74 0d		 je	 SHORT $LN22@number_of_

; 182  : 		return day + 335;

  002e1	8b 85 e0 00 00
	00		 mov	 eax, DWORD PTR day$[rbp]
  002e7	05 4f 01 00 00	 add	 eax, 335		; 0000014fH
  002ec	eb 1f		 jmp	 SHORT $LN1@number_of_
$LN22@number_of_:

; 183  : 	}
; 184  : 	if (month == 12 && !leap_year_check) {

  002ee	83 bd e8 00 00
	00 0c		 cmp	 DWORD PTR month$[rbp], 12
  002f5	75 16		 jne	 SHORT $LN23@number_of_
  002f7	0f b6 85 f8 00
	00 00		 movzx	 eax, BYTE PTR leap_year_check$[rbp]
  002fe	85 c0		 test	 eax, eax
  00300	75 0b		 jne	 SHORT $LN23@number_of_

; 185  : 		return day + 334;

  00302	8b 85 e0 00 00
	00		 mov	 eax, DWORD PTR day$[rbp]
  00308	05 4e 01 00 00	 add	 eax, 334		; 0000014eH
$LN23@number_of_:
$LN1@number_of_:

; 186  : 	}
; 187  : }

  0030d	48 8d a5 c8 00
	00 00		 lea	 rsp, QWORD PTR [rbp+200]
  00314	5f		 pop	 rdi
  00315	5d		 pop	 rbp
  00316	c3		 ret	 0
?number_of_day@@YAHHHH_N@Z ENDP				; number_of_day
_TEXT	ENDS
; Function compile flags: /Odtp /RTCsu /ZI
; File D:\2 \\ 1\Laba1\Laba1.cpp
;	COMDAT ?leap_year@@YA_NH@Z
_TEXT	SEGMENT
year$ = 224
?leap_year@@YA_NH@Z PROC				; leap_year, COMDAT

; 93   : bool leap_year(int year) {

$LN11:
  00000	89 4c 24 08	 mov	 DWORD PTR [rsp+8], ecx
  00004	55		 push	 rbp
  00005	57		 push	 rdi
  00006	48 81 ec e8 00
	00 00		 sub	 rsp, 232		; 000000e8H
  0000d	48 8d 6c 24 20	 lea	 rbp, QWORD PTR [rsp+32]
  00012	48 8d 0d 00 00
	00 00		 lea	 rcx, OFFSET FLAT:__7198BCB7_Laba1@cpp
  00019	e8 00 00 00 00	 call	 __CheckForDebuggerJustMyCode

; 94   : 	if (year % 4 == 0) {

  0001e	8b 85 e0 00 00
	00		 mov	 eax, DWORD PTR year$[rbp]
  00024	99		 cdq
  00025	83 e2 03	 and	 edx, 3
  00028	03 c2		 add	 eax, edx
  0002a	83 e0 03	 and	 eax, 3
  0002d	2b c2		 sub	 eax, edx
  0002f	85 c0		 test	 eax, eax
  00031	0f 85 e6 00 00
	00		 jne	 $LN2@leap_year

; 95   : 		if (year % 100 != 0) {

  00037	8b 85 e0 00 00
	00		 mov	 eax, DWORD PTR year$[rbp]
  0003d	99		 cdq
  0003e	b9 64 00 00 00	 mov	 ecx, 100		; 00000064H
  00043	f7 f9		 idiv	 ecx
  00045	8b c2		 mov	 eax, edx
  00047	85 c0		 test	 eax, eax
  00049	74 2f		 je	 SHORT $LN4@leap_year

; 96   : 			cout << "\n ." << endl;

  0004b	48 8d 15 00 00
	00 00		 lea	 rdx, OFFSET FLAT:??_C@_0BB@JMLFELDA@?6?C?n?d?5?b?h?q?n?j?n?q?m?$PL?i?4@
  00052	48 8b 0d 00 00
	00 00		 mov	 rcx, QWORD PTR __imp_?cout@std@@3V?$basic_ostream@DU?$char_traits@D@std@@@1@A
  00059	e8 00 00 00 00	 call	 ??$?6U?$char_traits@D@std@@@std@@YAAEAV?$basic_ostream@DU?$char_traits@D@std@@@0@AEAV10@PEBD@Z ; std::operator<<<std::char_traits<char> >
  0005e	48 8d 15 00 00
	00 00		 lea	 rdx, OFFSET FLAT:??$endl@DU?$char_traits@D@std@@@std@@YAAEAV?$basic_ostream@DU?$char_traits@D@std@@@0@AEAV10@@Z ; std::endl<char,std::char_traits<char> >
  00065	48 8b c8	 mov	 rcx, rax
  00068	ff 15 00 00 00
	00		 call	 QWORD PTR __imp_??6?$basic_ostream@DU?$char_traits@D@std@@@std@@QEAAAEAV01@P6AAEAV01@AEAV01@@Z@Z

; 97   : 			return true;

  0006e	b0 01		 mov	 al, 1
  00070	e9 cd 00 00 00	 jmp	 $LN1@leap_year

; 98   : 		}

  00075	e9 a1 00 00 00	 jmp	 $LN5@leap_year
$LN4@leap_year:

; 99   : 		else if (year % 100 == 0) {

  0007a	8b 85 e0 00 00
	00		 mov	 eax, DWORD PTR year$[rbp]
  00080	99		 cdq
  00081	b9 64 00 00 00	 mov	 ecx, 100		; 00000064H
  00086	f7 f9		 idiv	 ecx
  00088	8b c2		 mov	 eax, edx
  0008a	85 c0		 test	 eax, eax
  0008c	75 66		 jne	 SHORT $LN6@leap_year

; 100  : 			if (year % 400 != 0) {

  0008e	8b 85 e0 00 00
	00		 mov	 eax, DWORD PTR year$[rbp]
  00094	99		 cdq
  00095	b9 90 01 00 00	 mov	 ecx, 400		; 00000190H
  0009a	f7 f9		 idiv	 ecx
  0009c	8b c2		 mov	 eax, edx
  0009e	85 c0		 test	 eax, eax
  000a0	74 29		 je	 SHORT $LN8@leap_year

; 101  : 				cout << "\n  ." << endl;

  000a2	48 8d 15 00 00
	00 00		 lea	 rdx, OFFSET FLAT:??_C@_0BE@GBBDDEEJ@?6?C?n?d?5?m?e?5?b?h?q?n?j?n?q?m?$PL?i?4@
  000a9	48 8b 0d 00 00
	00 00		 mov	 rcx, QWORD PTR __imp_?cout@std@@3V?$basic_ostream@DU?$char_traits@D@std@@@1@A
  000b0	e8 00 00 00 00	 call	 ??$?6U?$char_traits@D@std@@@std@@YAAEAV?$basic_ostream@DU?$char_traits@D@std@@@0@AEAV10@PEBD@Z ; std::operator<<<std::char_traits<char> >
  000b5	48 8d 15 00 00
	00 00		 lea	 rdx, OFFSET FLAT:??$endl@DU?$char_traits@D@std@@@std@@YAAEAV?$basic_ostream@DU?$char_traits@D@std@@@0@AEAV10@@Z ; std::endl<char,std::char_traits<char> >
  000bc	48 8b c8	 mov	 rcx, rax
  000bf	ff 15 00 00 00
	00		 call	 QWORD PTR __imp_??6?$basic_ostream@DU?$char_traits@D@std@@@std@@QEAAAEAV01@P6AAEAV01@AEAV01@@Z@Z

; 102  : 				return false;

  000c5	32 c0		 xor	 al, al
  000c7	eb 79		 jmp	 SHORT $LN1@leap_year

; 103  : 			}

  000c9	eb 27		 jmp	 SHORT $LN9@leap_year
$LN8@leap_year:

; 104  : 			else {
; 105  : 				cout << "\n ." << endl;

  000cb	48 8d 15 00 00
	00 00		 lea	 rdx, OFFSET FLAT:??_C@_0BB@JMLFELDA@?6?C?n?d?5?b?h?q?n?j?n?q?m?$PL?i?4@
  000d2	48 8b 0d 00 00
	00 00		 mov	 rcx, QWORD PTR __imp_?cout@std@@3V?$basic_ostream@DU?$char_traits@D@std@@@1@A
  000d9	e8 00 00 00 00	 call	 ??$?6U?$char_traits@D@std@@@std@@YAAEAV?$basic_ostream@DU?$char_traits@D@std@@@0@AEAV10@PEBD@Z ; std::operator<<<std::char_traits<char> >
  000de	48 8d 15 00 00
	00 00		 lea	 rdx, OFFSET FLAT:??$endl@DU?$char_traits@D@std@@@std@@YAAEAV?$basic_ostream@DU?$char_traits@D@std@@@0@AEAV10@@Z ; std::endl<char,std::char_traits<char> >
  000e5	48 8b c8	 mov	 rcx, rax
  000e8	ff 15 00 00 00
	00		 call	 QWORD PTR __imp_??6?$basic_ostream@DU?$char_traits@D@std@@@std@@QEAAAEAV01@P6AAEAV01@AEAV01@@Z@Z

; 106  : 				return true;

  000ee	b0 01		 mov	 al, 1
  000f0	eb 50		 jmp	 SHORT $LN1@leap_year
$LN9@leap_year:

; 107  : 			}
; 108  : 		}

  000f2	eb 27		 jmp	 SHORT $LN7@leap_year
$LN6@leap_year:

; 109  : 		else {
; 110  : 			cout << "\n  ." << endl;

  000f4	48 8d 15 00 00
	00 00		 lea	 rdx, OFFSET FLAT:??_C@_0BE@GBBDDEEJ@?6?C?n?d?5?m?e?5?b?h?q?n?j?n?q?m?$PL?i?4@
  000fb	48 8b 0d 00 00
	00 00		 mov	 rcx, QWORD PTR __imp_?cout@std@@3V?$basic_ostream@DU?$char_traits@D@std@@@1@A
  00102	e8 00 00 00 00	 call	 ??$?6U?$char_traits@D@std@@@std@@YAAEAV?$basic_ostream@DU?$char_traits@D@std@@@0@AEAV10@PEBD@Z ; std::operator<<<std::char_traits<char> >
  00107	48 8d 15 00 00
	00 00		 lea	 rdx, OFFSET FLAT:??$endl@DU?$char_traits@D@std@@@std@@YAAEAV?$basic_ostream@DU?$char_traits@D@std@@@0@AEAV10@@Z ; std::endl<char,std::char_traits<char> >
  0010e	48 8b c8	 mov	 rcx, rax
  00111	ff 15 00 00 00
	00		 call	 QWORD PTR __imp_??6?$basic_ostream@DU?$char_traits@D@std@@@std@@QEAAAEAV01@P6AAEAV01@AEAV01@@Z@Z

; 111  : 			return false;

  00117	32 c0		 xor	 al, al
  00119	eb 27		 jmp	 SHORT $LN1@leap_year
$LN7@leap_year:
$LN5@leap_year:

; 112  : 		}
; 113  : 	}

  0011b	eb 25		 jmp	 SHORT $LN3@leap_year
$LN2@leap_year:

; 114  : 	else {
; 115  : 		cout << "\n  ." << endl;

  0011d	48 8d 15 00 00
	00 00		 lea	 rdx, OFFSET FLAT:??_C@_0BE@GBBDDEEJ@?6?C?n?d?5?m?e?5?b?h?q?n?j?n?q?m?$PL?i?4@
  00124	48 8b 0d 00 00
	00 00		 mov	 rcx, QWORD PTR __imp_?cout@std@@3V?$basic_ostream@DU?$char_traits@D@std@@@1@A
  0012b	e8 00 00 00 00	 call	 ??$?6U?$char_traits@D@std@@@std@@YAAEAV?$basic_ostream@DU?$char_traits@D@std@@@0@AEAV10@PEBD@Z ; std::operator<<<std::char_traits<char> >
  00130	48 8d 15 00 00
	00 00		 lea	 rdx, OFFSET FLAT:??$endl@DU?$char_traits@D@std@@@std@@YAAEAV?$basic_ostream@DU?$char_traits@D@std@@@0@AEAV10@@Z ; std::endl<char,std::char_traits<char> >
  00137	48 8b c8	 mov	 rcx, rax
  0013a	ff 15 00 00 00
	00		 call	 QWORD PTR __imp_??6?$basic_ostream@DU?$char_traits@D@std@@@std@@QEAAAEAV01@P6AAEAV01@AEAV01@@Z@Z

; 116  : 		return false;

  00140	32 c0		 xor	 al, al
$LN3@leap_year:
$LN1@leap_year:

; 117  : 	}
; 118  : }

  00142	48 8d a5 c8 00
	00 00		 lea	 rsp, QWORD PTR [rbp+200]
  00149	5f		 pop	 rdi
  0014a	5d		 pop	 rbp
  0014b	c3		 ret	 0
?leap_year@@YA_NH@Z ENDP				; leap_year
_TEXT	ENDS
; Function compile flags: /Odtp /RTCsu /ZI
; File C:\Program Files\Microsoft Visual Studio\2022\Community\VC\Tools\MSVC\14.31.31103\include\xstring
;	COMDAT ?eof@?$_Narrow_char_traits@DH@std@@SAHXZ
_TEXT	SEGMENT
?eof@?$_Narrow_char_traits@DH@std@@SAHXZ PROC		; std::_Narrow_char_traits<char,int>::eof, COMDAT

; 461  :     _NODISCARD static constexpr int_type eof() noexcept {

$LN3:
  00000	40 55		 push	 rbp
  00002	57		 push	 rdi
  00003	48 81 ec e8 00
	00 00		 sub	 rsp, 232		; 000000e8H
  0000a	48 8d 6c 24 20	 lea	 rbp, QWORD PTR [rsp+32]
  0000f	48 8d 0d 00 00
	00 00		 lea	 rcx, OFFSET FLAT:__CF153B44_xstring
  00016	e8 00 00 00 00	 call	 __CheckForDebuggerJustMyCode

; 462  :         return static_cast<int_type>(EOF);

  0001b	b8 ff ff ff ff	 mov	 eax, -1

; 463  :     }

  00020	48 8d a5 c8 00
	00 00		 lea	 rsp, QWORD PTR [rbp+200]
  00027	5f		 pop	 rdi
  00028	5d		 pop	 rbp
  00029	c3		 ret	 0
?eof@?$_Narrow_char_traits@DH@std@@SAHXZ ENDP		; std::_Narrow_char_traits<char,int>::eof
_TEXT	ENDS
; Function compile flags: /Odtp /RTCsu /ZI
; File C:\Program Files\Microsoft Visual Studio\2022\Community\VC\Tools\MSVC\14.31.31103\include\xstring
;	COMDAT ?eq_int_type@?$_Narrow_char_traits@DH@std@@SA_NAEBH0@Z
_TEXT	SEGMENT
tv65 = 192
_Left$ = 240
_Right$ = 248
?eq_int_type@?$_Narrow_char_traits@DH@std@@SA_NAEBH0@Z PROC ; std::_Narrow_char_traits<char,int>::eq_int_type, COMDAT

; 453  :     _NODISCARD static constexpr bool eq_int_type(const int_type& _Left, const int_type& _Right) noexcept {

$LN5:
  00000	48 89 54 24 10	 mov	 QWORD PTR [rsp+16], rdx
  00005	48 89 4c 24 08	 mov	 QWORD PTR [rsp+8], rcx
  0000a	55		 push	 rbp
  0000b	57		 push	 rdi
  0000c	48 81 ec f8 00
	00 00		 sub	 rsp, 248		; 000000f8H
  00013	48 8d 6c 24 20	 lea	 rbp, QWORD PTR [rsp+32]
  00018	48 8d 0d 00 00
	00 00		 lea	 rcx, OFFSET FLAT:__CF153B44_xstring
  0001f	e8 00 00 00 00	 call	 __CheckForDebuggerJustMyCode

; 454  :         return _Left == _Right;

  00024	48 8b 85 f0 00
	00 00		 mov	 rax, QWORD PTR _Left$[rbp]
  0002b	48 8b 8d f8 00
	00 00		 mov	 rcx, QWORD PTR _Right$[rbp]
  00032	8b 09		 mov	 ecx, DWORD PTR [rcx]
  00034	39 08		 cmp	 DWORD PTR [rax], ecx
  00036	75 0c		 jne	 SHORT $LN3@eq_int_typ
  00038	c7 85 c0 00 00
	00 01 00 00 00	 mov	 DWORD PTR tv65[rbp], 1
  00042	eb 0a		 jmp	 SHORT $LN4@eq_int_typ
$LN3@eq_int_typ:
  00044	c7 85 c0 00 00
	00 00 00 00 00	 mov	 DWORD PTR tv65[rbp], 0
$LN4@eq_int_typ:
  0004e	0f b6 85 c0 00
	00 00		 movzx	 eax, BYTE PTR tv65[rbp]

; 455  :     }

  00055	48 8d a5 d8 00
	00 00		 lea	 rsp, QWORD PTR [rbp+216]
  0005c	5f		 pop	 rdi
  0005d	5d		 pop	 rbp
  0005e	c3		 ret	 0
?eq_int_type@?$_Narrow_char_traits@DH@std@@SA_NAEBH0@Z ENDP ; std::_Narrow_char_traits<char,int>::eq_int_type
_TEXT	ENDS
; Function compile flags: /Odtp /RTCsu /ZI
; File C:\Program Files\Microsoft Visual Studio\2022\Community\VC\Tools\MSVC\14.31.31103\include\xstring
;	COMDAT ?length@?$_Narrow_char_traits@DH@std@@SA_KQEBD@Z
_TEXT	SEGMENT
_First$ = 224
?length@?$_Narrow_char_traits@DH@std@@SA_KQEBD@Z PROC	; std::_Narrow_char_traits<char,int>::length, COMDAT

; 380  :     _NODISCARD static _CONSTEXPR17 size_t length(_In_z_ const _Elem* const _First) noexcept /* strengthened */ {

$LN3:
  00000	48 89 4c 24 08	 mov	 QWORD PTR [rsp+8], rcx
  00005	55		 push	 rbp
  00006	57		 push	 rdi
  00007	48 81 ec e8 00
	00 00		 sub	 rsp, 232		; 000000e8H
  0000e	48 8d 6c 24 20	 lea	 rbp, QWORD PTR [rsp+32]
  00013	48 8d 0d 00 00
	00 00		 lea	 rcx, OFFSET FLAT:__CF153B44_xstring
  0001a	e8 00 00 00 00	 call	 __CheckForDebuggerJustMyCode

; 381  :         // find length of null-terminated string
; 382  : #if _HAS_CXX17
; 383  : #ifdef __cpp_char8_t
; 384  :         if constexpr (is_same_v<_Elem, char8_t>) {
; 385  : #if _HAS_U8_INTRINSICS
; 386  :             return __builtin_u8strlen(_First);
; 387  : #else // ^^^ use u8 intrinsics / no u8 intrinsics vvv
; 388  :             return _Primary_char_traits::length(_First);
; 389  : #endif // _HAS_U8_INTRINSICS
; 390  :         } else
; 391  : #endif // __cpp_char8_t
; 392  :         {
; 393  :             return __builtin_strlen(_First);
; 394  :         }
; 395  : #else // _HAS_CXX17
; 396  :         return _CSTD strlen(reinterpret_cast<const char*>(_First));

  0001f	48 8b 8d e0 00
	00 00		 mov	 rcx, QWORD PTR _First$[rbp]
  00026	e8 00 00 00 00	 call	 strlen

; 397  : #endif // _HAS_CXX17
; 398  :     }

  0002b	48 8d a5 c8 00
	00 00		 lea	 rsp, QWORD PTR [rbp+200]
  00032	5f		 pop	 rdi
  00033	5d		 pop	 rbp
  00034	c3		 ret	 0
?length@?$_Narrow_char_traits@DH@std@@SA_KQEBD@Z ENDP	; std::_Narrow_char_traits<char,int>::length
_TEXT	ENDS
; Function compile flags: /Odtp /RTCsu /ZI
; File D:\2 \\ 1\Laba1\Laba1.cpp
;	COMDAT ?__empty_global_delete@@YAXPEAX_K@Z
_TEXT	SEGMENT
__formal$ = 224
__formal$ = 232
?__empty_global_delete@@YAXPEAX_K@Z PROC		; __empty_global_delete, COMDAT

$LN3:
  00000	48 89 54 24 10	 mov	 QWORD PTR [rsp+16], rdx
  00005	48 89 4c 24 08	 mov	 QWORD PTR [rsp+8], rcx
  0000a	55		 push	 rbp
  0000b	57		 push	 rdi
  0000c	48 81 ec e8 00
	00 00		 sub	 rsp, 232		; 000000e8H
  00013	48 8d 6c 24 20	 lea	 rbp, QWORD PTR [rsp+32]
  00018	48 8d 0d 00 00
	00 00		 lea	 rcx, OFFSET FLAT:__7198BCB7_Laba1@cpp
  0001f	e8 00 00 00 00	 call	 __CheckForDebuggerJustMyCode
  00024	48 8d a5 c8 00
	00 00		 lea	 rsp, QWORD PTR [rbp+200]
  0002b	5f		 pop	 rdi
  0002c	5d		 pop	 rbp
  0002d	c3		 ret	 0
?__empty_global_delete@@YAXPEAX_K@Z ENDP		; __empty_global_delete
_TEXT	ENDS
; Function compile flags: /Odtp /RTCsu /ZI
; File D:\2 \\ 1\Laba1\Laba1.cpp
;	COMDAT ?__empty_global_delete@@YAXPEAX@Z
_TEXT	SEGMENT
__formal$ = 224
?__empty_global_delete@@YAXPEAX@Z PROC			; __empty_global_delete, COMDAT

$LN3:
  00000	48 89 4c 24 08	 mov	 QWORD PTR [rsp+8], rcx
  00005	55		 push	 rbp
  00006	57		 push	 rdi
  00007	48 81 ec e8 00
	00 00		 sub	 rsp, 232		; 000000e8H
  0000e	48 8d 6c 24 20	 lea	 rbp, QWORD PTR [rsp+32]
  00013	48 8d 0d 00 00
	00 00		 lea	 rcx, OFFSET FLAT:__7198BCB7_Laba1@cpp
  0001a	e8 00 00 00 00	 call	 __CheckForDebuggerJustMyCode
  0001f	48 8d a5 c8 00
	00 00		 lea	 rsp, QWORD PTR [rbp+200]
  00026	5f		 pop	 rdi
  00027	5d		 pop	 rbp
  00028	c3		 ret	 0
?__empty_global_delete@@YAXPEAX@Z ENDP			; __empty_global_delete
_TEXT	ENDS
END
